	.file	"main.cpp"
	.text
	.section	.rodata
	.type	_ZStL19piecewise_construct, @object
	.size	_ZStL19piecewise_construct, 1
_ZStL19piecewise_construct:
	.zero	1
	.local	_ZStL8__ioinit
	.comm	_ZStL8__ioinit,1,1
	.type	_ZStL13allocator_arg, @object
	.size	_ZStL13allocator_arg, 1
_ZStL13allocator_arg:
	.zero	1
	.type	_ZStL6ignore, @object
	.size	_ZStL6ignore, 1
_ZStL6ignore:
	.zero	1
	.align 4
	.type	_ZN5blitzL9fromStartE, @object
	.size	_ZN5blitzL9fromStartE, 4
_ZN5blitzL9fromStartE:
	.long	-2147483648
	.align 4
	.type	_ZN5blitzL5toEndE, @object
	.size	_ZN5blitzL5toEndE, 4
_ZN5blitzL5toEndE:
	.long	2147483647
	.section	.text._ZN5blitz20_bz_meta_nullOperandC2Ev,"axG",@progbits,_ZN5blitz20_bz_meta_nullOperandC5Ev,comdat
	.align 2
	.weak	_ZN5blitz20_bz_meta_nullOperandC2Ev
	.type	_ZN5blitz20_bz_meta_nullOperandC2Ev, @function
_ZN5blitz20_bz_meta_nullOperandC2Ev:
.LFB2807:
	.cfi_startproc
	pushq	%rbp
	.cfi_def_cfa_offset 16
	.cfi_offset 6, -16
	movq	%rsp, %rbp
	.cfi_def_cfa_register 6
	movq	%rdi, -8(%rbp)
	nop
	popq	%rbp
	.cfi_def_cfa 7, 8
	ret
	.cfi_endproc
.LFE2807:
	.size	_ZN5blitz20_bz_meta_nullOperandC2Ev, .-_ZN5blitz20_bz_meta_nullOperandC2Ev
	.weak	_ZN5blitz20_bz_meta_nullOperandC1Ev
	.set	_ZN5blitz20_bz_meta_nullOperandC1Ev,_ZN5blitz20_bz_meta_nullOperandC2Ev
	.section	.rodata
	.align 4
	.type	_ZN5blitzL14defaultPaddingE, @object
	.size	_ZN5blitzL14defaultPaddingE, 4
_ZN5blitzL14defaultPaddingE:
	.zero	4
	.align 4
	.type	_ZN5blitzL9firstRankE, @object
	.size	_ZN5blitzL9firstRankE, 4
_ZN5blitzL9firstRankE:
	.zero	4
	.align 4
	.type	_ZN5blitzL10secondRankE, @object
	.size	_ZN5blitzL10secondRankE, 4
_ZN5blitzL10secondRankE:
	.long	1
	.align 4
	.type	_ZN5blitzL9thirdRankE, @object
	.size	_ZN5blitzL9thirdRankE, 4
_ZN5blitzL9thirdRankE:
	.long	2
	.align 4
	.type	_ZN5blitzL10fourthRankE, @object
	.size	_ZN5blitzL10fourthRankE, 4
_ZN5blitzL10fourthRankE:
	.long	3
	.align 4
	.type	_ZN5blitzL9fifthRankE, @object
	.size	_ZN5blitzL9fifthRankE, 4
_ZN5blitzL9fifthRankE:
	.long	4
	.align 4
	.type	_ZN5blitzL9sixthRankE, @object
	.size	_ZN5blitzL9sixthRankE, 4
_ZN5blitzL9sixthRankE:
	.long	5
	.align 4
	.type	_ZN5blitzL11seventhRankE, @object
	.size	_ZN5blitzL11seventhRankE, 4
_ZN5blitzL11seventhRankE:
	.long	6
	.align 4
	.type	_ZN5blitzL10eighthRankE, @object
	.size	_ZN5blitzL10eighthRankE, 4
_ZN5blitzL10eighthRankE:
	.long	7
	.align 4
	.type	_ZN5blitzL9ninthRankE, @object
	.size	_ZN5blitzL9ninthRankE, 4
_ZN5blitzL9ninthRankE:
	.long	8
	.align 4
	.type	_ZN5blitzL9tenthRankE, @object
	.size	_ZN5blitzL9tenthRankE, 4
_ZN5blitzL9tenthRankE:
	.long	9
	.align 4
	.type	_ZN5blitzL12eleventhRankE, @object
	.size	_ZN5blitzL12eleventhRankE, 4
_ZN5blitzL12eleventhRankE:
	.long	10
	.align 4
	.type	_ZN5blitzL8firstDimE, @object
	.size	_ZN5blitzL8firstDimE, 4
_ZN5blitzL8firstDimE:
	.zero	4
	.align 4
	.type	_ZN5blitzL9secondDimE, @object
	.size	_ZN5blitzL9secondDimE, 4
_ZN5blitzL9secondDimE:
	.long	1
	.align 4
	.type	_ZN5blitzL8thirdDimE, @object
	.size	_ZN5blitzL8thirdDimE, 4
_ZN5blitzL8thirdDimE:
	.long	2
	.align 4
	.type	_ZN5blitzL9fourthDimE, @object
	.size	_ZN5blitzL9fourthDimE, 4
_ZN5blitzL9fourthDimE:
	.long	3
	.align 4
	.type	_ZN5blitzL8fifthDimE, @object
	.size	_ZN5blitzL8fifthDimE, 4
_ZN5blitzL8fifthDimE:
	.long	4
	.align 4
	.type	_ZN5blitzL8sixthDimE, @object
	.size	_ZN5blitzL8sixthDimE, 4
_ZN5blitzL8sixthDimE:
	.long	5
	.align 4
	.type	_ZN5blitzL10seventhDimE, @object
	.size	_ZN5blitzL10seventhDimE, 4
_ZN5blitzL10seventhDimE:
	.long	6
	.align 4
	.type	_ZN5blitzL9eighthDimE, @object
	.size	_ZN5blitzL9eighthDimE, 4
_ZN5blitzL9eighthDimE:
	.long	7
	.align 4
	.type	_ZN5blitzL8ninthDimE, @object
	.size	_ZN5blitzL8ninthDimE, 4
_ZN5blitzL8ninthDimE:
	.long	8
	.align 4
	.type	_ZN5blitzL8tenthDimE, @object
	.size	_ZN5blitzL8tenthDimE, 4
_ZN5blitzL8tenthDimE:
	.long	9
	.align 4
	.type	_ZN5blitzL11eleventhDimE, @object
	.size	_ZN5blitzL11eleventhDimE, 4
_ZN5blitzL11eleventhDimE:
	.long	10
	.align 8
	.type	_ZN5blitzL7recip_2E, @object
	.size	_ZN5blitzL7recip_2E, 8
_ZN5blitzL7recip_2E:
	.long	0
	.long	1071644672
	.align 8
	.type	_ZN5blitzL7recip_4E, @object
	.size	_ZN5blitzL7recip_4E, 8
_ZN5blitzL7recip_4E:
	.long	0
	.long	1070596096
	.align 8
	.type	_ZN5blitzL7recip_6E, @object
	.size	_ZN5blitzL7recip_6E, 8
_ZN5blitzL7recip_6E:
	.long	1431655765
	.long	1069897045
	.align 8
	.type	_ZN5blitzL7recip_8E, @object
	.size	_ZN5blitzL7recip_8E, 8
_ZN5blitzL7recip_8E:
	.long	0
	.long	1069547520
	.align 8
	.type	_ZN5blitzL8recip_12E, @object
	.size	_ZN5blitzL8recip_12E, 8
_ZN5blitzL8recip_12E:
	.long	1431655765
	.long	1068848469
	.align 8
	.type	_ZN5blitzL9recip_144E, @object
	.size	_ZN5blitzL9recip_144E, 8
_ZN5blitzL9recip_144E:
	.long	477218588
	.long	1065120199
	.section	.text._ZNKSt6chrono8durationIlSt5ratioILl1ELl1000000000EEE5countEv,"axG",@progbits,_ZNKSt6chrono8durationIlSt5ratioILl1ELl1000000000EEE5countEv,comdat
	.align 2
	.weak	_ZNKSt6chrono8durationIlSt5ratioILl1ELl1000000000EEE5countEv
	.type	_ZNKSt6chrono8durationIlSt5ratioILl1ELl1000000000EEE5countEv, @function
_ZNKSt6chrono8durationIlSt5ratioILl1ELl1000000000EEE5countEv:
.LFB5942:
	.cfi_startproc
	pushq	%rbp
	.cfi_def_cfa_offset 16
	.cfi_offset 6, -16
	movq	%rsp, %rbp
	.cfi_def_cfa_register 6
	movq	%rdi, -8(%rbp)
	movq	-8(%rbp), %rax
	movq	(%rax), %rax
	popq	%rbp
	.cfi_def_cfa 7, 8
	ret
	.cfi_endproc
.LFE5942:
	.size	_ZNKSt6chrono8durationIlSt5ratioILl1ELl1000000000EEE5countEv, .-_ZNKSt6chrono8durationIlSt5ratioILl1ELl1000000000EEE5countEv
	.section	.text._ZNSt6chrono8durationIlSt5ratioILl1ELl1000000000EEEC1IlvEERKT_,"axG",@progbits,_ZNSt6chrono8durationIlSt5ratioILl1ELl1000000000EEEC1IlvEERKT_,comdat
	.align 2
	.weak	_ZNSt6chrono8durationIlSt5ratioILl1ELl1000000000EEEC1IlvEERKT_
	.type	_ZNSt6chrono8durationIlSt5ratioILl1ELl1000000000EEEC1IlvEERKT_, @function
_ZNSt6chrono8durationIlSt5ratioILl1ELl1000000000EEEC1IlvEERKT_:
.LFB5947:
	.cfi_startproc
	pushq	%rbp
	.cfi_def_cfa_offset 16
	.cfi_offset 6, -16
	movq	%rsp, %rbp
	.cfi_def_cfa_register 6
	movq	%rdi, -8(%rbp)
	movq	%rsi, -16(%rbp)
	movq	-16(%rbp), %rax
	movq	(%rax), %rdx
	movq	-8(%rbp), %rax
	movq	%rdx, (%rax)
	nop
	popq	%rbp
	.cfi_def_cfa 7, 8
	ret
	.cfi_endproc
.LFE5947:
	.size	_ZNSt6chrono8durationIlSt5ratioILl1ELl1000000000EEEC1IlvEERKT_, .-_ZNSt6chrono8durationIlSt5ratioILl1ELl1000000000EEEC1IlvEERKT_
	.section	.rodata
	.align 8
.LC1:
	.string	"cost in microseconds with c style pointer iteration "
.LC2:
	.string	"\n"
	.text
	.globl	_Z10versionOneN5blitz5ArrayIfLi2EEEii
	.type	_Z10versionOneN5blitz5ArrayIfLi2EEEii, @function
_Z10versionOneN5blitz5ArrayIfLi2EEEii:
.LFB5965:
	.cfi_startproc
	pushq	%rbp
	.cfi_def_cfa_offset 16
	.cfi_offset 6, -16
	movq	%rsp, %rbp
	.cfi_def_cfa_register 6
	pushq	%rbx
	subq	$104, %rsp
	.cfi_offset 3, -24
	movq	%rdi, -104(%rbp)
	movl	%esi, -108(%rbp)
	movl	%edx, -112(%rbp)
	movl	$0, -20(%rbp)
	movss	.LC0(%rip), %xmm0
	movss	%xmm0, -36(%rbp)
	movq	-104(%rbp), %rax
	movq	%rax, %rdi
	call	_ZN5blitz5ArrayIfLi2EE4dataEv
	movq	%rax, -48(%rbp)
	movl	-108(%rbp), %eax
	cltq
	leaq	0(,%rax,4), %rdx
	movq	-48(%rbp), %rax
	addq	%rdx, %rax
	movq	%rax, -56(%rbp)
	call	_ZNSt6chrono3_V212system_clock3nowEv@PLT
	movq	%rax, -80(%rbp)
	movq	-48(%rbp), %rax
	movq	%rax, -32(%rbp)
.L7:
	movq	-32(%rbp), %rax
	cmpq	-56(%rbp), %rax
	jnb	.L6
	movq	-32(%rbp), %rax
	movss	(%rax), %xmm1
	movss	-36(%rbp), %xmm0
	comiss	%xmm1, %xmm0
	seta	%al
	movzbl	%al, %eax
	addl	%eax, -20(%rbp)
	addq	$4, -32(%rbp)
	jmp	.L7
.L6:
	call	_ZNSt6chrono3_V212system_clock3nowEv@PLT
	movq	%rax, -88(%rbp)
	leaq	.LC1(%rip), %rsi
	leaq	_ZSt4cout(%rip), %rdi
	call	_ZStlsISt11char_traitsIcEERSt13basic_ostreamIcT_ES5_PKc@PLT
	movq	%rax, %rbx
	leaq	-80(%rbp), %rdx
	leaq	-88(%rbp), %rax
	movq	%rdx, %rsi
	movq	%rax, %rdi
	call	_ZNSt6chronomiINS_3_V212system_clockENS_8durationIlSt5ratioILl1ELl1000000000EEEES6_EENSt11common_typeIJT0_T1_EE4typeERKNS_10time_pointIT_S8_EERKNSC_ISD_S9_EE
	movq	%rax, -64(%rbp)
	leaq	-64(%rbp), %rax
	movq	%rax, %rdi
	call	_ZNSt6chrono13duration_castINS_8durationIlSt5ratioILl1ELl1000000EEEElS2_ILl1ELl1000000000EEEENSt9enable_ifIXsrNS_13__is_durationIT_EE5valueES8_E4typeERKNS1_IT0_T1_EE
	movq	%rax, -72(%rbp)
	leaq	-72(%rbp), %rax
	movq	%rax, %rdi
	call	_ZNKSt6chrono8durationIlSt5ratioILl1ELl1000000EEE5countEv
	movq	%rax, %rsi
	movq	%rbx, %rdi
	call	_ZNSolsEl@PLT
	leaq	.LC2(%rip), %rsi
	movq	%rax, %rdi
	call	_ZStlsISt11char_traitsIcEERSt13basic_ostreamIcT_ES5_PKc@PLT
	nop
	movq	-8(%rbp), %rbx
	leave
	.cfi_def_cfa 7, 8
	ret
	.cfi_endproc
.LFE5965:
	.size	_Z10versionOneN5blitz5ArrayIfLi2EEEii, .-_Z10versionOneN5blitz5ArrayIfLi2EEEii
	.section	.rodata
	.align 8
.LC3:
	.string	"cost in microseconds with blitz iterator: "
	.text
	.globl	_Z10versionTwoN5blitz5ArrayIfLi2EEEii
	.type	_Z10versionTwoN5blitz5ArrayIfLi2EEEii, @function
_Z10versionTwoN5blitz5ArrayIfLi2EEEii:
.LFB5966:
	.cfi_startproc
	pushq	%rbp
	.cfi_def_cfa_offset 16
	.cfi_offset 6, -16
	movq	%rsp, %rbp
	.cfi_def_cfa_register 6
	pushq	%rbx
	subq	$88, %rsp
	.cfi_offset 3, -24
	movq	%rdi, -88(%rbp)
	movl	%esi, -92(%rbp)
	movl	%edx, -96(%rbp)
	movl	$0, -20(%rbp)
	movss	.LC0(%rip), %xmm0
	movss	%xmm0, -28(%rbp)
	movq	-88(%rbp), %rax
	movq	%rax, %rdi
	call	_ZN5blitz5ArrayIfLi2EE4dataEv
	movq	%rax, -40(%rbp)
	movl	-92(%rbp), %eax
	imull	-96(%rbp), %eax
	cltq
	leaq	0(,%rax,4), %rdx
	movq	-40(%rbp), %rax
	addq	%rdx, %rax
	movq	%rax, -48(%rbp)
	call	_ZNSt6chrono3_V212system_clock3nowEv@PLT
	movq	%rax, -72(%rbp)
	movl	$0, -24(%rbp)
.L10:
	movl	-24(%rbp), %eax
	cmpl	-92(%rbp), %eax
	jge	.L9
	movl	-24(%rbp), %ecx
	movq	-88(%rbp), %rax
	movl	$0, %edx
	movl	%ecx, %esi
	movq	%rax, %rdi
	call	_ZN5blitz5ArrayIfLi2EEclEii
	movss	(%rax), %xmm1
	pxor	%xmm0, %xmm0
	cvtsi2ssl	-20(%rbp), %xmm0
	addss	%xmm1, %xmm0
	cvttss2sil	%xmm0, %eax
	movl	%eax, -20(%rbp)
	addl	$1, -24(%rbp)
	jmp	.L10
.L9:
	call	_ZNSt6chrono3_V212system_clock3nowEv@PLT
	movq	%rax, -80(%rbp)
	leaq	.LC3(%rip), %rsi
	leaq	_ZSt4cout(%rip), %rdi
	call	_ZStlsISt11char_traitsIcEERSt13basic_ostreamIcT_ES5_PKc@PLT
	movq	%rax, %rbx
	leaq	-72(%rbp), %rdx
	leaq	-80(%rbp), %rax
	movq	%rdx, %rsi
	movq	%rax, %rdi
	call	_ZNSt6chronomiINS_3_V212system_clockENS_8durationIlSt5ratioILl1ELl1000000000EEEES6_EENSt11common_typeIJT0_T1_EE4typeERKNS_10time_pointIT_S8_EERKNSC_ISD_S9_EE
	movq	%rax, -56(%rbp)
	leaq	-56(%rbp), %rax
	movq	%rax, %rdi
	call	_ZNSt6chrono13duration_castINS_8durationIlSt5ratioILl1ELl1000000EEEElS2_ILl1ELl1000000000EEEENSt9enable_ifIXsrNS_13__is_durationIT_EE5valueES8_E4typeERKNS1_IT0_T1_EE
	movq	%rax, -64(%rbp)
	leaq	-64(%rbp), %rax
	movq	%rax, %rdi
	call	_ZNKSt6chrono8durationIlSt5ratioILl1ELl1000000EEE5countEv
	movq	%rax, %rsi
	movq	%rbx, %rdi
	call	_ZNSolsEl@PLT
	leaq	.LC2(%rip), %rsi
	movq	%rax, %rdi
	call	_ZStlsISt11char_traitsIcEERSt13basic_ostreamIcT_ES5_PKc@PLT
	nop
	movq	-8(%rbp), %rbx
	leave
	.cfi_def_cfa 7, 8
	ret
	.cfi_endproc
.LFE5966:
	.size	_Z10versionTwoN5blitz5ArrayIfLi2EEEii, .-_Z10versionTwoN5blitz5ArrayIfLi2EEEii
	.section	.text._ZN5blitz5ArrayIfLi2EED2Ev,"axG",@progbits,_ZN5blitz5ArrayIfLi2EED5Ev,comdat
	.align 2
	.weak	_ZN5blitz5ArrayIfLi2EED2Ev
	.type	_ZN5blitz5ArrayIfLi2EED2Ev, @function
_ZN5blitz5ArrayIfLi2EED2Ev:
.LFB5969:
	.cfi_startproc
	pushq	%rbp
	.cfi_def_cfa_offset 16
	.cfi_offset 6, -16
	movq	%rsp, %rbp
	.cfi_def_cfa_register 6
	subq	$16, %rsp
	movq	%rdi, -8(%rbp)
	movq	-8(%rbp), %rax
	addq	$48, %rax
	movq	%rax, %rdi
	call	_ZN5blitz10TinyVectorIlLi2EED1Ev
	movq	-8(%rbp), %rax
	addq	$40, %rax
	movq	%rax, %rdi
	call	_ZN5blitz10TinyVectorIiLi2EED1Ev
	movq	-8(%rbp), %rax
	addq	$16, %rax
	movq	%rax, %rdi
	call	_ZN5blitz19GeneralArrayStorageILi2EED1Ev
	movq	-8(%rbp), %rax
	movq	%rax, %rdi
	call	_ZN5blitz20MemoryBlockReferenceIfED2Ev
	nop
	leave
	.cfi_def_cfa 7, 8
	ret
	.cfi_endproc
.LFE5969:
	.size	_ZN5blitz5ArrayIfLi2EED2Ev, .-_ZN5blitz5ArrayIfLi2EED2Ev
	.weak	_ZN5blitz5ArrayIfLi2EED1Ev
	.set	_ZN5blitz5ArrayIfLi2EED1Ev,_ZN5blitz5ArrayIfLi2EED2Ev
	.section	.rodata
.LC4:
	.string	"Performing measurements "
	.text
	.globl	main
	.type	main, @function
main:
.LFB5967:
	.cfi_startproc
	.cfi_personality 0x9b,DW.ref.__gxx_personality_v0
	.cfi_lsda 0x1b,.LLSDA5967
	pushq	%rbp
	.cfi_def_cfa_offset 16
	.cfi_offset 6, -16
	movq	%rsp, %rbp
	.cfi_def_cfa_register 6
	pushq	%rbx
	subq	$408, %rsp
	.cfi_offset 3, -24
	movl	%edi, -404(%rbp)
	movq	%rsi, -416(%rbp)
	movl	$33554432, -28(%rbp)
	movl	$10, -32(%rbp)
	leaq	.LC4(%rip), %rsi
	leaq	_ZSt4cout(%rip), %rdi
.LEHB0:
	call	_ZStlsISt11char_traitsIcEERSt13basic_ostreamIcT_ES5_PKc@PLT
	movq	%rax, %rdx
	movl	-28(%rbp), %eax
	movl	%eax, %esi
	movq	%rdx, %rdi
	call	_ZNSolsEi@PLT
	leaq	.LC2(%rip), %rsi
	movq	%rax, %rdi
	call	_ZStlsISt11char_traitsIcEERSt13basic_ostreamIcT_ES5_PKc@PLT
	leaq	-320(%rbp), %rax
	movl	$0, %esi
	movq	%rax, %rdi
	call	_ZN5blitz19GeneralArrayStorageILi2EEC1ENS_13paddingPolicyE
.LEHE0:
	leaq	-320(%rbp), %rax
	movq	%rax, %rdi
	call	_ZN5blitz19GeneralArrayStorageILi2EE8orderingEv
	movq	%rax, %rcx
	leaq	-288(%rbp), %rax
	movl	$0, %edx
	movq	%rcx, %rsi
	movq	%rax, %rdi
.LEHB1:
	call	_ZN5blitz10TinyVectorIiLi2EEaSEi
.LEHE1:
	leaq	-288(%rbp), %rax
	movl	$1, %esi
	movq	%rax, %rdi
.LEHB2:
	call	_ZN5blitz24ListInitializationSwitchINS_10TinyVectorIiLi2EEEPiEcmEi
.LEHE2:
	leaq	-288(%rbp), %rax
	movq	%rax, %rdi
	call	_ZN5blitz24ListInitializationSwitchINS_10TinyVectorIiLi2EEEPiED1Ev
	leaq	-320(%rbp), %rax
	movq	%rax, %rdi
	call	_ZN5blitz19GeneralArrayStorageILi2EE4baseEv
	movq	%rax, %rcx
	leaq	-272(%rbp), %rax
	movl	$0, %edx
	movq	%rcx, %rsi
	movq	%rax, %rdi
.LEHB3:
	call	_ZN5blitz10TinyVectorIiLi2EEaSEi
.LEHE3:
	leaq	-272(%rbp), %rax
	movl	$0, %esi
	movq	%rax, %rdi
.LEHB4:
	call	_ZN5blitz24ListInitializationSwitchINS_10TinyVectorIiLi2EEEPiEcmEi
.LEHE4:
	leaq	-272(%rbp), %rax
	movq	%rax, %rdi
	call	_ZN5blitz24ListInitializationSwitchINS_10TinyVectorIiLi2EEEPiED1Ev
	leaq	-320(%rbp), %rax
	movq	%rax, %rdi
	call	_ZN5blitz19GeneralArrayStorageILi2EE13ascendingFlagEv
	movq	%rax, %rcx
	leaq	-256(%rbp), %rax
	movl	$1, %edx
	movq	%rcx, %rsi
	movq	%rax, %rdi
.LEHB5:
	call	_ZN5blitz10TinyVectorIbLi2EEaSEb
.LEHE5:
	leaq	-256(%rbp), %rax
	movl	$1, %esi
	movq	%rax, %rdi
.LEHB6:
	call	_ZN5blitz24ListInitializationSwitchINS_10TinyVectorIbLi2EEEPbEcmEb
.LEHE6:
	leaq	-256(%rbp), %rax
	movq	%rax, %rdi
	call	_ZN5blitz24ListInitializationSwitchINS_10TinyVectorIbLi2EEEPbED1Ev
	leaq	-240(%rbp), %rax
	movl	$0, %esi
	movq	%rax, %rdi
.LEHB7:
	call	_ZN5blitz19GeneralArrayStorageILi2EEC1ENS_13paddingPolicyE
.LEHE7:
	leaq	-240(%rbp), %rcx
	movl	-32(%rbp), %edx
	movl	-28(%rbp), %esi
	leaq	-400(%rbp), %rax
	movq	%rax, %rdi
.LEHB8:
	call	_ZN5blitz5ArrayIfLi2EEC1EiiNS_19GeneralArrayStorageILi2EEE
.LEHE8:
	leaq	-240(%rbp), %rax
	movq	%rax, %rdi
	call	_ZN5blitz19GeneralArrayStorageILi2EED1Ev
	leaq	-400(%rbp), %rax
	movq	%rax, %rdi
.LEHB9:
	call	_ZN5blitz5ArrayIfLi2EE4dataEv
	movq	%rax, -40(%rbp)
	movl	-28(%rbp), %eax
	imull	-32(%rbp), %eax
	cltq
	leaq	0(,%rax,4), %rdx
	movq	-40(%rbp), %rax
	addq	%rdx, %rax
	movq	%rax, -48(%rbp)
	movq	-40(%rbp), %rax
	movq	%rax, -24(%rbp)
.L14:
	movq	-24(%rbp), %rax
	cmpq	-48(%rbp), %rax
	jnb	.L13
	call	rand@PLT
	pxor	%xmm0, %xmm0
	cvtsi2ssl	%eax, %xmm0
	movss	.LC5(%rip), %xmm1
	divss	%xmm1, %xmm0
	movq	-24(%rbp), %rax
	movss	%xmm0, (%rax)
	addq	$4, -24(%rbp)
	jmp	.L14
.L13:
	leaq	-400(%rbp), %rdx
	leaq	-208(%rbp), %rax
	movq	%rdx, %rsi
	movq	%rax, %rdi
	call	_ZN5blitz5ArrayIfLi2EEC1ERKS1_
.LEHE9:
	movl	-32(%rbp), %edx
	movl	-28(%rbp), %ecx
	leaq	-208(%rbp), %rax
	movl	%ecx, %esi
	movq	%rax, %rdi
.LEHB10:
	call	_Z10versionOneN5blitz5ArrayIfLi2EEEii
.LEHE10:
	leaq	-208(%rbp), %rax
	movq	%rax, %rdi
	call	_ZN5blitz5ArrayIfLi2EED1Ev
	leaq	-400(%rbp), %rdx
	leaq	-128(%rbp), %rax
	movq	%rdx, %rsi
	movq	%rax, %rdi
.LEHB11:
	call	_ZN5blitz5ArrayIfLi2EEC1ERKS1_
.LEHE11:
	movl	-32(%rbp), %edx
	movl	-28(%rbp), %ecx
	leaq	-128(%rbp), %rax
	movl	%ecx, %esi
	movq	%rax, %rdi
.LEHB12:
	call	_Z10versionTwoN5blitz5ArrayIfLi2EEEii
.LEHE12:
	leaq	-128(%rbp), %rax
	movq	%rax, %rdi
	call	_ZN5blitz5ArrayIfLi2EED1Ev
	movl	$0, %ebx
	leaq	-400(%rbp), %rax
	movq	%rax, %rdi
	call	_ZN5blitz5ArrayIfLi2EED1Ev
	leaq	-320(%rbp), %rax
	movq	%rax, %rdi
	call	_ZN5blitz19GeneralArrayStorageILi2EED1Ev
	movl	%ebx, %eax
	jmp	.L32
.L25:
	movq	%rax, %rbx
	leaq	-288(%rbp), %rax
	movq	%rax, %rdi
	call	_ZN5blitz24ListInitializationSwitchINS_10TinyVectorIiLi2EEEPiED1Ev
	jmp	.L17
.L26:
	movq	%rax, %rbx
	leaq	-272(%rbp), %rax
	movq	%rax, %rdi
	call	_ZN5blitz24ListInitializationSwitchINS_10TinyVectorIiLi2EEEPiED1Ev
	jmp	.L17
.L27:
	movq	%rax, %rbx
	leaq	-256(%rbp), %rax
	movq	%rax, %rdi
	call	_ZN5blitz24ListInitializationSwitchINS_10TinyVectorIbLi2EEEPbED1Ev
	jmp	.L17
.L28:
	movq	%rax, %rbx
	leaq	-240(%rbp), %rax
	movq	%rax, %rdi
	call	_ZN5blitz19GeneralArrayStorageILi2EED1Ev
	jmp	.L17
.L30:
	movq	%rax, %rbx
	leaq	-208(%rbp), %rax
	movq	%rax, %rdi
	call	_ZN5blitz5ArrayIfLi2EED1Ev
	jmp	.L22
.L31:
	movq	%rax, %rbx
	leaq	-128(%rbp), %rax
	movq	%rax, %rdi
	call	_ZN5blitz5ArrayIfLi2EED1Ev
	jmp	.L22
.L29:
	movq	%rax, %rbx
.L22:
	leaq	-400(%rbp), %rax
	movq	%rax, %rdi
	call	_ZN5blitz5ArrayIfLi2EED1Ev
	jmp	.L17
.L24:
	movq	%rax, %rbx
.L17:
	leaq	-320(%rbp), %rax
	movq	%rax, %rdi
	call	_ZN5blitz19GeneralArrayStorageILi2EED1Ev
	movq	%rbx, %rax
	movq	%rax, %rdi
.LEHB13:
	call	_Unwind_Resume@PLT
.LEHE13:
.L32:
	movq	-8(%rbp), %rbx
	leave
	.cfi_def_cfa 7, 8
	ret
	.cfi_endproc
.LFE5967:
	.globl	__gxx_personality_v0
	.section	.gcc_except_table,"a",@progbits
.LLSDA5967:
	.byte	0xff
	.byte	0xff
	.byte	0x1
	.uleb128 .LLSDACSE5967-.LLSDACSB5967
.LLSDACSB5967:
	.uleb128 .LEHB0-.LFB5967
	.uleb128 .LEHE0-.LEHB0
	.uleb128 0
	.uleb128 0
	.uleb128 .LEHB1-.LFB5967
	.uleb128 .LEHE1-.LEHB1
	.uleb128 .L24-.LFB5967
	.uleb128 0
	.uleb128 .LEHB2-.LFB5967
	.uleb128 .LEHE2-.LEHB2
	.uleb128 .L25-.LFB5967
	.uleb128 0
	.uleb128 .LEHB3-.LFB5967
	.uleb128 .LEHE3-.LEHB3
	.uleb128 .L24-.LFB5967
	.uleb128 0
	.uleb128 .LEHB4-.LFB5967
	.uleb128 .LEHE4-.LEHB4
	.uleb128 .L26-.LFB5967
	.uleb128 0
	.uleb128 .LEHB5-.LFB5967
	.uleb128 .LEHE5-.LEHB5
	.uleb128 .L24-.LFB5967
	.uleb128 0
	.uleb128 .LEHB6-.LFB5967
	.uleb128 .LEHE6-.LEHB6
	.uleb128 .L27-.LFB5967
	.uleb128 0
	.uleb128 .LEHB7-.LFB5967
	.uleb128 .LEHE7-.LEHB7
	.uleb128 .L24-.LFB5967
	.uleb128 0
	.uleb128 .LEHB8-.LFB5967
	.uleb128 .LEHE8-.LEHB8
	.uleb128 .L28-.LFB5967
	.uleb128 0
	.uleb128 .LEHB9-.LFB5967
	.uleb128 .LEHE9-.LEHB9
	.uleb128 .L29-.LFB5967
	.uleb128 0
	.uleb128 .LEHB10-.LFB5967
	.uleb128 .LEHE10-.LEHB10
	.uleb128 .L30-.LFB5967
	.uleb128 0
	.uleb128 .LEHB11-.LFB5967
	.uleb128 .LEHE11-.LEHB11
	.uleb128 .L29-.LFB5967
	.uleb128 0
	.uleb128 .LEHB12-.LFB5967
	.uleb128 .LEHE12-.LEHB12
	.uleb128 .L31-.LFB5967
	.uleb128 0
	.uleb128 .LEHB13-.LFB5967
	.uleb128 .LEHE13-.LEHB13
	.uleb128 0
	.uleb128 0
.LLSDACSE5967:
	.text
	.size	main, .-main
	.section	.text._ZN5blitz19GeneralArrayStorageILi2EEC2ENS_13paddingPolicyE,"axG",@progbits,_ZN5blitz19GeneralArrayStorageILi2EEC5ENS_13paddingPolicyE,comdat
	.align 2
	.weak	_ZN5blitz19GeneralArrayStorageILi2EEC2ENS_13paddingPolicyE
	.type	_ZN5blitz19GeneralArrayStorageILi2EEC2ENS_13paddingPolicyE, @function
_ZN5blitz19GeneralArrayStorageILi2EEC2ENS_13paddingPolicyE:
.LFB6257:
	.cfi_startproc
	.cfi_personality 0x9b,DW.ref.__gxx_personality_v0
	.cfi_lsda 0x1b,.LLSDA6257
	pushq	%rbp
	.cfi_def_cfa_offset 16
	.cfi_offset 6, -16
	movq	%rsp, %rbp
	.cfi_def_cfa_register 6
	pushq	%rbx
	subq	$72, %rsp
	.cfi_offset 3, -24
	movq	%rdi, -72(%rbp)
	movl	%esi, -76(%rbp)
	movq	-72(%rbp), %rax
	addq	$4, %rax
	movq	%rax, %rdi
.LEHB14:
	call	_ZN5blitz10TinyVectorIbLi2EEC1Ev
.LEHE14:
	movq	-72(%rbp), %rax
	addq	$8, %rax
	movq	%rax, %rdi
.LEHB15:
	call	_ZN5blitz10TinyVectorIiLi2EEC1Ev
.LEHE15:
	movq	-72(%rbp), %rax
	addq	$16, %rax
	movq	%rax, %rdi
.LEHB16:
	call	_ZN5blitz10TinyVectorIiLi2EEC1Ev
.LEHE16:
	movl	$0, -20(%rbp)
.L35:
	cmpl	$1, -20(%rbp)
	jg	.L34
	movq	-72(%rbp), %rax
	leaq	8(%rax), %rdx
	movl	-20(%rbp), %eax
	movl	%eax, %esi
	movq	%rdx, %rdi
	call	_ZN5blitz10TinyVectorIiLi2EEclEj
	movl	$1, %edx
	subl	-20(%rbp), %edx
	movl	%edx, (%rax)
	addl	$1, -20(%rbp)
	jmp	.L35
.L34:
	movq	-72(%rbp), %rax
	leaq	4(%rax), %rcx
	leaq	-64(%rbp), %rax
	movl	$1, %edx
	movq	%rcx, %rsi
	movq	%rax, %rdi
.LEHB17:
	call	_ZN5blitz10TinyVectorIbLi2EEaSEb
	leaq	-64(%rbp), %rax
	movq	%rax, %rdi
	call	_ZN5blitz24ListInitializationSwitchINS_10TinyVectorIbLi2EEEPbED1Ev
	movq	-72(%rbp), %rax
	leaq	16(%rax), %rcx
	leaq	-48(%rbp), %rax
	movl	$0, %edx
	movq	%rcx, %rsi
	movq	%rax, %rdi
	call	_ZN5blitz10TinyVectorIiLi2EEaSEi
.LEHE17:
	leaq	-48(%rbp), %rax
	movq	%rax, %rdi
	call	_ZN5blitz24ListInitializationSwitchINS_10TinyVectorIiLi2EEEPiED1Ev
	movq	-72(%rbp), %rax
	movl	-76(%rbp), %edx
	movl	%edx, (%rax)
	jmp	.L42
.L41:
	movq	%rax, %rbx
	movq	-72(%rbp), %rax
	addq	$16, %rax
	movq	%rax, %rdi
	call	_ZN5blitz10TinyVectorIiLi2EED1Ev
	jmp	.L37
.L40:
	movq	%rax, %rbx
.L37:
	movq	-72(%rbp), %rax
	addq	$8, %rax
	movq	%rax, %rdi
	call	_ZN5blitz10TinyVectorIiLi2EED1Ev
	jmp	.L38
.L39:
	movq	%rax, %rbx
.L38:
	movq	-72(%rbp), %rax
	addq	$4, %rax
	movq	%rax, %rdi
	call	_ZN5blitz10TinyVectorIbLi2EED1Ev
	movq	%rbx, %rax
	movq	%rax, %rdi
.LEHB18:
	call	_Unwind_Resume@PLT
.LEHE18:
.L42:
	movq	-8(%rbp), %rbx
	leave
	.cfi_def_cfa 7, 8
	ret
	.cfi_endproc
.LFE6257:
	.section	.gcc_except_table
.LLSDA6257:
	.byte	0xff
	.byte	0xff
	.byte	0x1
	.uleb128 .LLSDACSE6257-.LLSDACSB6257
.LLSDACSB6257:
	.uleb128 .LEHB14-.LFB6257
	.uleb128 .LEHE14-.LEHB14
	.uleb128 0
	.uleb128 0
	.uleb128 .LEHB15-.LFB6257
	.uleb128 .LEHE15-.LEHB15
	.uleb128 .L39-.LFB6257
	.uleb128 0
	.uleb128 .LEHB16-.LFB6257
	.uleb128 .LEHE16-.LEHB16
	.uleb128 .L40-.LFB6257
	.uleb128 0
	.uleb128 .LEHB17-.LFB6257
	.uleb128 .LEHE17-.LEHB17
	.uleb128 .L41-.LFB6257
	.uleb128 0
	.uleb128 .LEHB18-.LFB6257
	.uleb128 .LEHE18-.LEHB18
	.uleb128 0
	.uleb128 0
.LLSDACSE6257:
	.section	.text._ZN5blitz19GeneralArrayStorageILi2EEC2ENS_13paddingPolicyE,"axG",@progbits,_ZN5blitz19GeneralArrayStorageILi2EEC5ENS_13paddingPolicyE,comdat
	.size	_ZN5blitz19GeneralArrayStorageILi2EEC2ENS_13paddingPolicyE, .-_ZN5blitz19GeneralArrayStorageILi2EEC2ENS_13paddingPolicyE
	.weak	_ZN5blitz19GeneralArrayStorageILi2EEC1ENS_13paddingPolicyE
	.set	_ZN5blitz19GeneralArrayStorageILi2EEC1ENS_13paddingPolicyE,_ZN5blitz19GeneralArrayStorageILi2EEC2ENS_13paddingPolicyE
	.section	.text._ZN5blitz19GeneralArrayStorageILi2EED2Ev,"axG",@progbits,_ZN5blitz19GeneralArrayStorageILi2EED5Ev,comdat
	.align 2
	.weak	_ZN5blitz19GeneralArrayStorageILi2EED2Ev
	.type	_ZN5blitz19GeneralArrayStorageILi2EED2Ev, @function
_ZN5blitz19GeneralArrayStorageILi2EED2Ev:
.LFB6260:
	.cfi_startproc
	pushq	%rbp
	.cfi_def_cfa_offset 16
	.cfi_offset 6, -16
	movq	%rsp, %rbp
	.cfi_def_cfa_register 6
	subq	$16, %rsp
	movq	%rdi, -8(%rbp)
	movq	-8(%rbp), %rax
	addq	$16, %rax
	movq	%rax, %rdi
	call	_ZN5blitz10TinyVectorIiLi2EED1Ev
	movq	-8(%rbp), %rax
	addq	$8, %rax
	movq	%rax, %rdi
	call	_ZN5blitz10TinyVectorIiLi2EED1Ev
	movq	-8(%rbp), %rax
	addq	$4, %rax
	movq	%rax, %rdi
	call	_ZN5blitz10TinyVectorIbLi2EED1Ev
	nop
	leave
	.cfi_def_cfa 7, 8
	ret
	.cfi_endproc
.LFE6260:
	.size	_ZN5blitz19GeneralArrayStorageILi2EED2Ev, .-_ZN5blitz19GeneralArrayStorageILi2EED2Ev
	.weak	_ZN5blitz19GeneralArrayStorageILi2EED1Ev
	.set	_ZN5blitz19GeneralArrayStorageILi2EED1Ev,_ZN5blitz19GeneralArrayStorageILi2EED2Ev
	.section	.text._ZN5blitz19GeneralArrayStorageILi2EEC2ERKS1_,"axG",@progbits,_ZN5blitz19GeneralArrayStorageILi2EEC5ERKS1_,comdat
	.align 2
	.weak	_ZN5blitz19GeneralArrayStorageILi2EEC2ERKS1_
	.type	_ZN5blitz19GeneralArrayStorageILi2EEC2ERKS1_, @function
_ZN5blitz19GeneralArrayStorageILi2EEC2ERKS1_:
.LFB6263:
	.cfi_startproc
	.cfi_personality 0x9b,DW.ref.__gxx_personality_v0
	.cfi_lsda 0x1b,.LLSDA6263
	pushq	%rbp
	.cfi_def_cfa_offset 16
	.cfi_offset 6, -16
	movq	%rsp, %rbp
	.cfi_def_cfa_register 6
	pushq	%rbx
	subq	$24, %rsp
	.cfi_offset 3, -24
	movq	%rdi, -24(%rbp)
	movq	%rsi, -32(%rbp)
	movq	-32(%rbp), %rax
	movl	(%rax), %edx
	movq	-24(%rbp), %rax
	movl	%edx, (%rax)
	movq	-24(%rbp), %rax
	addq	$4, %rax
	movq	-32(%rbp), %rdx
	addq	$4, %rdx
	movq	%rdx, %rsi
	movq	%rax, %rdi
.LEHB19:
	call	_ZN5blitz10TinyVectorIbLi2EEC1ERKS1_
.LEHE19:
	movq	-24(%rbp), %rax
	addq	$8, %rax
	movq	-32(%rbp), %rdx
	addq	$8, %rdx
	movq	%rdx, %rsi
	movq	%rax, %rdi
.LEHB20:
	call	_ZN5blitz10TinyVectorIiLi2EEC1ERKS1_
.LEHE20:
	movq	-24(%rbp), %rax
	addq	$16, %rax
	movq	-32(%rbp), %rdx
	addq	$16, %rdx
	movq	%rdx, %rsi
	movq	%rax, %rdi
.LEHB21:
	call	_ZN5blitz10TinyVectorIiLi2EEC1ERKS1_
.LEHE21:
	jmp	.L49
.L48:
	movq	%rax, %rbx
	movq	-24(%rbp), %rax
	addq	$8, %rax
	movq	%rax, %rdi
	call	_ZN5blitz10TinyVectorIiLi2EED1Ev
	jmp	.L46
.L47:
	movq	%rax, %rbx
.L46:
	movq	-24(%rbp), %rax
	addq	$4, %rax
	movq	%rax, %rdi
	call	_ZN5blitz10TinyVectorIbLi2EED1Ev
	movq	%rbx, %rax
	movq	%rax, %rdi
.LEHB22:
	call	_Unwind_Resume@PLT
.LEHE22:
.L49:
	movq	-8(%rbp), %rbx
	leave
	.cfi_def_cfa 7, 8
	ret
	.cfi_endproc
.LFE6263:
	.section	.gcc_except_table
.LLSDA6263:
	.byte	0xff
	.byte	0xff
	.byte	0x1
	.uleb128 .LLSDACSE6263-.LLSDACSB6263
.LLSDACSB6263:
	.uleb128 .LEHB19-.LFB6263
	.uleb128 .LEHE19-.LEHB19
	.uleb128 0
	.uleb128 0
	.uleb128 .LEHB20-.LFB6263
	.uleb128 .LEHE20-.LEHB20
	.uleb128 .L47-.LFB6263
	.uleb128 0
	.uleb128 .LEHB21-.LFB6263
	.uleb128 .LEHE21-.LEHB21
	.uleb128 .L48-.LFB6263
	.uleb128 0
	.uleb128 .LEHB22-.LFB6263
	.uleb128 .LEHE22-.LEHB22
	.uleb128 0
	.uleb128 0
.LLSDACSE6263:
	.section	.text._ZN5blitz19GeneralArrayStorageILi2EEC2ERKS1_,"axG",@progbits,_ZN5blitz19GeneralArrayStorageILi2EEC5ERKS1_,comdat
	.size	_ZN5blitz19GeneralArrayStorageILi2EEC2ERKS1_, .-_ZN5blitz19GeneralArrayStorageILi2EEC2ERKS1_
	.weak	_ZN5blitz19GeneralArrayStorageILi2EEC1ERKS1_
	.set	_ZN5blitz19GeneralArrayStorageILi2EEC1ERKS1_,_ZN5blitz19GeneralArrayStorageILi2EEC2ERKS1_
	.section	.text._ZN5blitz10TinyVectorIiLi2EED2Ev,"axG",@progbits,_ZN5blitz10TinyVectorIiLi2EED5Ev,comdat
	.align 2
	.weak	_ZN5blitz10TinyVectorIiLi2EED2Ev
	.type	_ZN5blitz10TinyVectorIiLi2EED2Ev, @function
_ZN5blitz10TinyVectorIiLi2EED2Ev:
.LFB6450:
	.cfi_startproc
	pushq	%rbp
	.cfi_def_cfa_offset 16
	.cfi_offset 6, -16
	movq	%rsp, %rbp
	.cfi_def_cfa_register 6
	movq	%rdi, -8(%rbp)
	nop
	popq	%rbp
	.cfi_def_cfa 7, 8
	ret
	.cfi_endproc
.LFE6450:
	.size	_ZN5blitz10TinyVectorIiLi2EED2Ev, .-_ZN5blitz10TinyVectorIiLi2EED2Ev
	.weak	_ZN5blitz10TinyVectorIiLi2EED1Ev
	.set	_ZN5blitz10TinyVectorIiLi2EED1Ev,_ZN5blitz10TinyVectorIiLi2EED2Ev
	.section	.text._ZN5blitz10TinyVectorIiLi2EEC2ERKS1_,"axG",@progbits,_ZN5blitz10TinyVectorIiLi2EEC5ERKS1_,comdat
	.align 2
	.weak	_ZN5blitz10TinyVectorIiLi2EEC2ERKS1_
	.type	_ZN5blitz10TinyVectorIiLi2EEC2ERKS1_, @function
_ZN5blitz10TinyVectorIiLi2EEC2ERKS1_:
.LFB6453:
	.cfi_startproc
	pushq	%rbp
	.cfi_def_cfa_offset 16
	.cfi_offset 6, -16
	movq	%rsp, %rbp
	.cfi_def_cfa_register 6
	subq	$32, %rsp
	movq	%rdi, -24(%rbp)
	movq	%rsi, -32(%rbp)
	movq	-24(%rbp), %rax
	movq	%rax, %rdi
	call	_ZN5blitz6ETBaseINS_10TinyVectorIiLi2EEEEC2Ev
	movl	$0, -4(%rbp)
.L53:
	cmpl	$1, -4(%rbp)
	jg	.L54
	movq	-32(%rbp), %rax
	movl	-4(%rbp), %edx
	movslq	%edx, %rdx
	movl	(%rax,%rdx,4), %ecx
	movq	-24(%rbp), %rax
	movl	-4(%rbp), %edx
	movslq	%edx, %rdx
	movl	%ecx, (%rax,%rdx,4)
	addl	$1, -4(%rbp)
	jmp	.L53
.L54:
	nop
	leave
	.cfi_def_cfa 7, 8
	ret
	.cfi_endproc
.LFE6453:
	.size	_ZN5blitz10TinyVectorIiLi2EEC2ERKS1_, .-_ZN5blitz10TinyVectorIiLi2EEC2ERKS1_
	.weak	_ZN5blitz10TinyVectorIiLi2EEC1ERKS1_
	.set	_ZN5blitz10TinyVectorIiLi2EEC1ERKS1_,_ZN5blitz10TinyVectorIiLi2EEC2ERKS1_
	.section	.text._ZNKSt6chrono10time_pointINS_3_V212system_clockENS_8durationIlSt5ratioILl1ELl1000000000EEEEE16time_since_epochEv,"axG",@progbits,_ZNKSt6chrono10time_pointINS_3_V212system_clockENS_8durationIlSt5ratioILl1ELl1000000000EEEEE16time_since_epochEv,comdat
	.align 2
	.weak	_ZNKSt6chrono10time_pointINS_3_V212system_clockENS_8durationIlSt5ratioILl1ELl1000000000EEEEE16time_since_epochEv
	.type	_ZNKSt6chrono10time_pointINS_3_V212system_clockENS_8durationIlSt5ratioILl1ELl1000000000EEEEE16time_since_epochEv, @function
_ZNKSt6chrono10time_pointINS_3_V212system_clockENS_8durationIlSt5ratioILl1ELl1000000000EEEEE16time_since_epochEv:
.LFB6530:
	.cfi_startproc
	pushq	%rbp
	.cfi_def_cfa_offset 16
	.cfi_offset 6, -16
	movq	%rsp, %rbp
	.cfi_def_cfa_register 6
	movq	%rdi, -8(%rbp)
	movq	-8(%rbp), %rax
	movq	(%rax), %rax
	popq	%rbp
	.cfi_def_cfa 7, 8
	ret
	.cfi_endproc
.LFE6530:
	.size	_ZNKSt6chrono10time_pointINS_3_V212system_clockENS_8durationIlSt5ratioILl1ELl1000000000EEEEE16time_since_epochEv, .-_ZNKSt6chrono10time_pointINS_3_V212system_clockENS_8durationIlSt5ratioILl1ELl1000000000EEEEE16time_since_epochEv
	.section	.text._ZN5blitz5ArrayIfLi2EE4dataEv,"axG",@progbits,_ZN5blitz5ArrayIfLi2EE4dataEv,comdat
	.align 2
	.weak	_ZN5blitz5ArrayIfLi2EE4dataEv
	.type	_ZN5blitz5ArrayIfLi2EE4dataEv, @function
_ZN5blitz5ArrayIfLi2EE4dataEv:
.LFB6558:
	.cfi_startproc
	pushq	%rbp
	.cfi_def_cfa_offset 16
	.cfi_offset 6, -16
	movq	%rsp, %rbp
	.cfi_def_cfa_register 6
	pushq	%rbx
	subq	$24, %rsp
	.cfi_offset 3, -24
	movq	%rdi, -24(%rbp)
	movq	-24(%rbp), %rax
	movq	(%rax), %rbx
	movq	-24(%rbp), %rax
	movq	%rax, %rdi
	call	_ZNK5blitz5ArrayIfLi2EE10dataOffsetEv
	salq	$2, %rax
	addq	%rbx, %rax
	movq	-8(%rbp), %rbx
	leave
	.cfi_def_cfa 7, 8
	ret
	.cfi_endproc
.LFE6558:
	.size	_ZN5blitz5ArrayIfLi2EE4dataEv, .-_ZN5blitz5ArrayIfLi2EE4dataEv
	.section	.text._ZNSt6chronomiINS_3_V212system_clockENS_8durationIlSt5ratioILl1ELl1000000000EEEES6_EENSt11common_typeIJT0_T1_EE4typeERKNS_10time_pointIT_S8_EERKNSC_ISD_S9_EE,"axG",@progbits,_ZNSt6chronomiINS_3_V212system_clockENS_8durationIlSt5ratioILl1ELl1000000000EEEES6_EENSt11common_typeIJT0_T1_EE4typeERKNS_10time_pointIT_S8_EERKNSC_ISD_S9_EE,comdat
	.weak	_ZNSt6chronomiINS_3_V212system_clockENS_8durationIlSt5ratioILl1ELl1000000000EEEES6_EENSt11common_typeIJT0_T1_EE4typeERKNS_10time_pointIT_S8_EERKNSC_ISD_S9_EE
	.type	_ZNSt6chronomiINS_3_V212system_clockENS_8durationIlSt5ratioILl1ELl1000000000EEEES6_EENSt11common_typeIJT0_T1_EE4typeERKNS_10time_pointIT_S8_EERKNSC_ISD_S9_EE, @function
_ZNSt6chronomiINS_3_V212system_clockENS_8durationIlSt5ratioILl1ELl1000000000EEEES6_EENSt11common_typeIJT0_T1_EE4typeERKNS_10time_pointIT_S8_EERKNSC_ISD_S9_EE:
.LFB6559:
	.cfi_startproc
	pushq	%rbp
	.cfi_def_cfa_offset 16
	.cfi_offset 6, -16
	movq	%rsp, %rbp
	.cfi_def_cfa_register 6
	subq	$32, %rsp
	movq	%rdi, -24(%rbp)
	movq	%rsi, -32(%rbp)
	movq	-32(%rbp), %rax
	movq	%rax, %rdi
	call	_ZNKSt6chrono10time_pointINS_3_V212system_clockENS_8durationIlSt5ratioILl1ELl1000000000EEEEE16time_since_epochEv
	movq	%rax, -16(%rbp)
	movq	-24(%rbp), %rax
	movq	%rax, %rdi
	call	_ZNKSt6chrono10time_pointINS_3_V212system_clockENS_8durationIlSt5ratioILl1ELl1000000000EEEEE16time_since_epochEv
	movq	%rax, -8(%rbp)
	leaq	-16(%rbp), %rdx
	leaq	-8(%rbp), %rax
	movq	%rdx, %rsi
	movq	%rax, %rdi
	call	_ZNSt6chronomiIlSt5ratioILl1ELl1000000000EElS2_EENSt11common_typeIJNS_8durationIT_T0_EENS4_IT1_T2_EEEE4typeERKS7_RKSA_
	leave
	.cfi_def_cfa 7, 8
	ret
	.cfi_endproc
.LFE6559:
	.size	_ZNSt6chronomiINS_3_V212system_clockENS_8durationIlSt5ratioILl1ELl1000000000EEEES6_EENSt11common_typeIJT0_T1_EE4typeERKNS_10time_pointIT_S8_EERKNSC_ISD_S9_EE, .-_ZNSt6chronomiINS_3_V212system_clockENS_8durationIlSt5ratioILl1ELl1000000000EEEES6_EENSt11common_typeIJT0_T1_EE4typeERKNS_10time_pointIT_S8_EERKNSC_ISD_S9_EE
	.section	.text._ZNSt6chrono13duration_castINS_8durationIlSt5ratioILl1ELl1000000EEEElS2_ILl1ELl1000000000EEEENSt9enable_ifIXsrNS_13__is_durationIT_EE5valueES8_E4typeERKNS1_IT0_T1_EE,"axG",@progbits,_ZNSt6chrono13duration_castINS_8durationIlSt5ratioILl1ELl1000000EEEElS2_ILl1ELl1000000000EEEENSt9enable_ifIXsrNS_13__is_durationIT_EE5valueES8_E4typeERKNS1_IT0_T1_EE,comdat
	.weak	_ZNSt6chrono13duration_castINS_8durationIlSt5ratioILl1ELl1000000EEEElS2_ILl1ELl1000000000EEEENSt9enable_ifIXsrNS_13__is_durationIT_EE5valueES8_E4typeERKNS1_IT0_T1_EE
	.type	_ZNSt6chrono13duration_castINS_8durationIlSt5ratioILl1ELl1000000EEEElS2_ILl1ELl1000000000EEEENSt9enable_ifIXsrNS_13__is_durationIT_EE5valueES8_E4typeERKNS1_IT0_T1_EE, @function
_ZNSt6chrono13duration_castINS_8durationIlSt5ratioILl1ELl1000000EEEElS2_ILl1ELl1000000000EEEENSt9enable_ifIXsrNS_13__is_durationIT_EE5valueES8_E4typeERKNS1_IT0_T1_EE:
.LFB6560:
	.cfi_startproc
	pushq	%rbp
	.cfi_def_cfa_offset 16
	.cfi_offset 6, -16
	movq	%rsp, %rbp
	.cfi_def_cfa_register 6
	subq	$16, %rsp
	movq	%rdi, -8(%rbp)
	movq	-8(%rbp), %rax
	movq	%rax, %rdi
	call	_ZNSt6chrono20__duration_cast_implINS_8durationIlSt5ratioILl1ELl1000000EEEES2_ILl1ELl1000EElLb1ELb0EE6__castIlS2_ILl1ELl1000000000EEEES4_RKNS1_IT_T0_EE
	leave
	.cfi_def_cfa 7, 8
	ret
	.cfi_endproc
.LFE6560:
	.size	_ZNSt6chrono13duration_castINS_8durationIlSt5ratioILl1ELl1000000EEEElS2_ILl1ELl1000000000EEEENSt9enable_ifIXsrNS_13__is_durationIT_EE5valueES8_E4typeERKNS1_IT0_T1_EE, .-_ZNSt6chrono13duration_castINS_8durationIlSt5ratioILl1ELl1000000EEEElS2_ILl1ELl1000000000EEEENSt9enable_ifIXsrNS_13__is_durationIT_EE5valueES8_E4typeERKNS1_IT0_T1_EE
	.section	.text._ZNKSt6chrono8durationIlSt5ratioILl1ELl1000000EEE5countEv,"axG",@progbits,_ZNKSt6chrono8durationIlSt5ratioILl1ELl1000000EEE5countEv,comdat
	.align 2
	.weak	_ZNKSt6chrono8durationIlSt5ratioILl1ELl1000000EEE5countEv
	.type	_ZNKSt6chrono8durationIlSt5ratioILl1ELl1000000EEE5countEv, @function
_ZNKSt6chrono8durationIlSt5ratioILl1ELl1000000EEE5countEv:
.LFB6561:
	.cfi_startproc
	pushq	%rbp
	.cfi_def_cfa_offset 16
	.cfi_offset 6, -16
	movq	%rsp, %rbp
	.cfi_def_cfa_register 6
	movq	%rdi, -8(%rbp)
	movq	-8(%rbp), %rax
	movq	(%rax), %rax
	popq	%rbp
	.cfi_def_cfa 7, 8
	ret
	.cfi_endproc
.LFE6561:
	.size	_ZNKSt6chrono8durationIlSt5ratioILl1ELl1000000EEE5countEv, .-_ZNKSt6chrono8durationIlSt5ratioILl1ELl1000000EEE5countEv
	.section	.text._ZN5blitz5ArrayIfLi2EEclEii,"axG",@progbits,_ZN5blitz5ArrayIfLi2EEclEii,comdat
	.align 2
	.weak	_ZN5blitz5ArrayIfLi2EEclEii
	.type	_ZN5blitz5ArrayIfLi2EEclEii, @function
_ZN5blitz5ArrayIfLi2EEclEii:
.LFB6562:
	.cfi_startproc
	pushq	%rbp
	.cfi_def_cfa_offset 16
	.cfi_offset 6, -16
	movq	%rsp, %rbp
	.cfi_def_cfa_register 6
	pushq	%r13
	pushq	%r12
	pushq	%rbx
	subq	$24, %rsp
	.cfi_offset 13, -24
	.cfi_offset 12, -32
	.cfi_offset 3, -40
	movq	%rdi, -40(%rbp)
	movl	%esi, -44(%rbp)
	movl	%edx, -48(%rbp)
	movl	-48(%rbp), %edx
	movl	-44(%rbp), %ecx
	movq	-40(%rbp), %rax
	movl	%ecx, %esi
	movq	%rax, %rdi
	call	_ZNK5blitz5ArrayIfLi2EE13assertInRangeEii
	movq	-40(%rbp), %rax
	movq	(%rax), %r12
	movl	-44(%rbp), %eax
	movslq	%eax, %rbx
	movq	-40(%rbp), %rax
	addq	$48, %rax
	movl	$0, %esi
	movq	%rax, %rdi
	call	_ZN5blitz10TinyVectorIlLi2EEixEj
	movq	(%rax), %rax
	imulq	%rax, %rbx
	movq	%rbx, %r13
	movl	-48(%rbp), %eax
	movslq	%eax, %rbx
	movq	-40(%rbp), %rax
	addq	$48, %rax
	movl	$1, %esi
	movq	%rax, %rdi
	call	_ZN5blitz10TinyVectorIlLi2EEixEj
	movq	(%rax), %rax
	imulq	%rbx, %rax
	addq	%r13, %rax
	salq	$2, %rax
	addq	%r12, %rax
	addq	$24, %rsp
	popq	%rbx
	popq	%r12
	popq	%r13
	popq	%rbp
	.cfi_def_cfa 7, 8
	ret
	.cfi_endproc
.LFE6562:
	.size	_ZN5blitz5ArrayIfLi2EEclEii, .-_ZN5blitz5ArrayIfLi2EEclEii
	.section	.text._ZN5blitz19GeneralArrayStorageILi2EE8orderingEv,"axG",@progbits,_ZN5blitz19GeneralArrayStorageILi2EE8orderingEv,comdat
	.align 2
	.weak	_ZN5blitz19GeneralArrayStorageILi2EE8orderingEv
	.type	_ZN5blitz19GeneralArrayStorageILi2EE8orderingEv, @function
_ZN5blitz19GeneralArrayStorageILi2EE8orderingEv:
.LFB6563:
	.cfi_startproc
	pushq	%rbp
	.cfi_def_cfa_offset 16
	.cfi_offset 6, -16
	movq	%rsp, %rbp
	.cfi_def_cfa_register 6
	movq	%rdi, -8(%rbp)
	movq	-8(%rbp), %rax
	addq	$8, %rax
	popq	%rbp
	.cfi_def_cfa 7, 8
	ret
	.cfi_endproc
.LFE6563:
	.size	_ZN5blitz19GeneralArrayStorageILi2EE8orderingEv, .-_ZN5blitz19GeneralArrayStorageILi2EE8orderingEv
	.section	.text._ZN5blitz10TinyVectorIiLi2EEaSEi,"axG",@progbits,_ZN5blitz10TinyVectorIiLi2EEaSEi,comdat
	.align 2
	.weak	_ZN5blitz10TinyVectorIiLi2EEaSEi
	.type	_ZN5blitz10TinyVectorIiLi2EEaSEi, @function
_ZN5blitz10TinyVectorIiLi2EEaSEi:
.LFB6564:
	.cfi_startproc
	pushq	%rbp
	.cfi_def_cfa_offset 16
	.cfi_offset 6, -16
	movq	%rsp, %rbp
	.cfi_def_cfa_register 6
	subq	$32, %rsp
	movq	%rdi, -8(%rbp)
	movq	%rsi, -16(%rbp)
	movl	%edx, -20(%rbp)
	movl	-20(%rbp), %edx
	movq	-16(%rbp), %rcx
	movq	-8(%rbp), %rax
	movq	%rcx, %rsi
	movq	%rax, %rdi
	call	_ZN5blitz24ListInitializationSwitchINS_10TinyVectorIiLi2EEEPiEC1ERS2_i
	movq	-8(%rbp), %rax
	leave
	.cfi_def_cfa 7, 8
	ret
	.cfi_endproc
.LFE6564:
	.size	_ZN5blitz10TinyVectorIiLi2EEaSEi, .-_ZN5blitz10TinyVectorIiLi2EEaSEi
	.section	.text._ZN5blitz24ListInitializationSwitchINS_10TinyVectorIiLi2EEEPiED2Ev,"axG",@progbits,_ZN5blitz24ListInitializationSwitchINS_10TinyVectorIiLi2EEEPiED5Ev,comdat
	.align 2
	.weak	_ZN5blitz24ListInitializationSwitchINS_10TinyVectorIiLi2EEEPiED2Ev
	.type	_ZN5blitz24ListInitializationSwitchINS_10TinyVectorIiLi2EEEPiED2Ev, @function
_ZN5blitz24ListInitializationSwitchINS_10TinyVectorIiLi2EEEPiED2Ev:
.LFB6566:
	.cfi_startproc
	.cfi_personality 0x9b,DW.ref.__gxx_personality_v0
	.cfi_lsda 0x1b,.LLSDA6566
	pushq	%rbp
	.cfi_def_cfa_offset 16
	.cfi_offset 6, -16
	movq	%rsp, %rbp
	.cfi_def_cfa_register 6
	subq	$16, %rsp
	movq	%rdi, -8(%rbp)
	movq	-8(%rbp), %rax
	movzbl	12(%rax), %eax
	testb	%al, %al
	je	.L73
	movq	-8(%rbp), %rax
	movq	(%rax), %rax
	movq	-8(%rbp), %rdx
	movl	8(%rdx), %edx
	movl	%edx, %esi
	movq	%rax, %rdi
	call	_ZN5blitz10TinyVectorIiLi2EE10initializeEi
.L73:
	nop
	leave
	.cfi_def_cfa 7, 8
	ret
	.cfi_endproc
.LFE6566:
	.section	.gcc_except_table
.LLSDA6566:
	.byte	0xff
	.byte	0xff
	.byte	0x1
	.uleb128 .LLSDACSE6566-.LLSDACSB6566
.LLSDACSB6566:
.LLSDACSE6566:
	.section	.text._ZN5blitz24ListInitializationSwitchINS_10TinyVectorIiLi2EEEPiED2Ev,"axG",@progbits,_ZN5blitz24ListInitializationSwitchINS_10TinyVectorIiLi2EEEPiED5Ev,comdat
	.size	_ZN5blitz24ListInitializationSwitchINS_10TinyVectorIiLi2EEEPiED2Ev, .-_ZN5blitz24ListInitializationSwitchINS_10TinyVectorIiLi2EEEPiED2Ev
	.weak	_ZN5blitz24ListInitializationSwitchINS_10TinyVectorIiLi2EEEPiED1Ev
	.set	_ZN5blitz24ListInitializationSwitchINS_10TinyVectorIiLi2EEEPiED1Ev,_ZN5blitz24ListInitializationSwitchINS_10TinyVectorIiLi2EEEPiED2Ev
	.section	.text._ZN5blitz24ListInitializationSwitchINS_10TinyVectorIiLi2EEEPiEcmEi,"axG",@progbits,_ZN5blitz24ListInitializationSwitchINS_10TinyVectorIiLi2EEEPiEcmEi,comdat
	.align 2
	.weak	_ZN5blitz24ListInitializationSwitchINS_10TinyVectorIiLi2EEEPiEcmEi
	.type	_ZN5blitz24ListInitializationSwitchINS_10TinyVectorIiLi2EEEPiEcmEi, @function
_ZN5blitz24ListInitializationSwitchINS_10TinyVectorIiLi2EEEPiEcmEi:
.LFB6568:
	.cfi_startproc
	pushq	%rbp
	.cfi_def_cfa_offset 16
	.cfi_offset 6, -16
	movq	%rsp, %rbp
	.cfi_def_cfa_register 6
	subq	$32, %rsp
	movq	%rdi, -24(%rbp)
	movl	%esi, -28(%rbp)
	movq	-24(%rbp), %rax
	movb	$0, 12(%rax)
	movq	-24(%rbp), %rax
	movq	(%rax), %rax
	movq	%rax, %rdi
	call	_ZN5blitz10TinyVectorIiLi2EE25getInitializationIteratorEv
	movq	%rax, -8(%rbp)
	movq	-24(%rbp), %rax
	movl	8(%rax), %edx
	movq	-8(%rbp), %rax
	movl	%edx, (%rax)
	addq	$4, -8(%rbp)
	movq	-8(%rbp), %rax
	movl	-28(%rbp), %edx
	movl	%edx, (%rax)
	addq	$4, -8(%rbp)
	movq	-8(%rbp), %rdx
	leaq	-16(%rbp), %rax
	movq	%rdx, %rsi
	movq	%rax, %rdi
	call	_ZN5blitz15ListInitializerIiPiEC1ES1_
	movq	-16(%rbp), %rax
	leave
	.cfi_def_cfa 7, 8
	ret
	.cfi_endproc
.LFE6568:
	.size	_ZN5blitz24ListInitializationSwitchINS_10TinyVectorIiLi2EEEPiEcmEi, .-_ZN5blitz24ListInitializationSwitchINS_10TinyVectorIiLi2EEEPiEcmEi
	.section	.text._ZN5blitz19GeneralArrayStorageILi2EE4baseEv,"axG",@progbits,_ZN5blitz19GeneralArrayStorageILi2EE4baseEv,comdat
	.align 2
	.weak	_ZN5blitz19GeneralArrayStorageILi2EE4baseEv
	.type	_ZN5blitz19GeneralArrayStorageILi2EE4baseEv, @function
_ZN5blitz19GeneralArrayStorageILi2EE4baseEv:
.LFB6569:
	.cfi_startproc
	pushq	%rbp
	.cfi_def_cfa_offset 16
	.cfi_offset 6, -16
	movq	%rsp, %rbp
	.cfi_def_cfa_register 6
	movq	%rdi, -8(%rbp)
	movq	-8(%rbp), %rax
	addq	$16, %rax
	popq	%rbp
	.cfi_def_cfa 7, 8
	ret
	.cfi_endproc
.LFE6569:
	.size	_ZN5blitz19GeneralArrayStorageILi2EE4baseEv, .-_ZN5blitz19GeneralArrayStorageILi2EE4baseEv
	.section	.text._ZN5blitz19GeneralArrayStorageILi2EE13ascendingFlagEv,"axG",@progbits,_ZN5blitz19GeneralArrayStorageILi2EE13ascendingFlagEv,comdat
	.align 2
	.weak	_ZN5blitz19GeneralArrayStorageILi2EE13ascendingFlagEv
	.type	_ZN5blitz19GeneralArrayStorageILi2EE13ascendingFlagEv, @function
_ZN5blitz19GeneralArrayStorageILi2EE13ascendingFlagEv:
.LFB6570:
	.cfi_startproc
	pushq	%rbp
	.cfi_def_cfa_offset 16
	.cfi_offset 6, -16
	movq	%rsp, %rbp
	.cfi_def_cfa_register 6
	movq	%rdi, -8(%rbp)
	movq	-8(%rbp), %rax
	addq	$4, %rax
	popq	%rbp
	.cfi_def_cfa 7, 8
	ret
	.cfi_endproc
.LFE6570:
	.size	_ZN5blitz19GeneralArrayStorageILi2EE13ascendingFlagEv, .-_ZN5blitz19GeneralArrayStorageILi2EE13ascendingFlagEv
	.section	.text._ZN5blitz10TinyVectorIbLi2EEaSEb,"axG",@progbits,_ZN5blitz10TinyVectorIbLi2EEaSEb,comdat
	.align 2
	.weak	_ZN5blitz10TinyVectorIbLi2EEaSEb
	.type	_ZN5blitz10TinyVectorIbLi2EEaSEb, @function
_ZN5blitz10TinyVectorIbLi2EEaSEb:
.LFB6571:
	.cfi_startproc
	pushq	%rbp
	.cfi_def_cfa_offset 16
	.cfi_offset 6, -16
	movq	%rsp, %rbp
	.cfi_def_cfa_register 6
	subq	$32, %rsp
	movq	%rdi, -8(%rbp)
	movq	%rsi, -16(%rbp)
	movl	%edx, %eax
	movb	%al, -20(%rbp)
	movzbl	-20(%rbp), %edx
	movq	-16(%rbp), %rcx
	movq	-8(%rbp), %rax
	movq	%rcx, %rsi
	movq	%rax, %rdi
	call	_ZN5blitz24ListInitializationSwitchINS_10TinyVectorIbLi2EEEPbEC1ERS2_b
	movq	-8(%rbp), %rax
	leave
	.cfi_def_cfa 7, 8
	ret
	.cfi_endproc
.LFE6571:
	.size	_ZN5blitz10TinyVectorIbLi2EEaSEb, .-_ZN5blitz10TinyVectorIbLi2EEaSEb
	.section	.text._ZN5blitz24ListInitializationSwitchINS_10TinyVectorIbLi2EEEPbED2Ev,"axG",@progbits,_ZN5blitz24ListInitializationSwitchINS_10TinyVectorIbLi2EEEPbED5Ev,comdat
	.align 2
	.weak	_ZN5blitz24ListInitializationSwitchINS_10TinyVectorIbLi2EEEPbED2Ev
	.type	_ZN5blitz24ListInitializationSwitchINS_10TinyVectorIbLi2EEEPbED2Ev, @function
_ZN5blitz24ListInitializationSwitchINS_10TinyVectorIbLi2EEEPbED2Ev:
.LFB6573:
	.cfi_startproc
	.cfi_personality 0x9b,DW.ref.__gxx_personality_v0
	.cfi_lsda 0x1b,.LLSDA6573
	pushq	%rbp
	.cfi_def_cfa_offset 16
	.cfi_offset 6, -16
	movq	%rsp, %rbp
	.cfi_def_cfa_register 6
	subq	$16, %rsp
	movq	%rdi, -8(%rbp)
	movq	-8(%rbp), %rax
	movzbl	9(%rax), %eax
	testb	%al, %al
	je	.L84
	movq	-8(%rbp), %rax
	movq	(%rax), %rax
	movq	-8(%rbp), %rdx
	movzbl	8(%rdx), %edx
	movzbl	%dl, %edx
	movl	%edx, %esi
	movq	%rax, %rdi
	call	_ZN5blitz10TinyVectorIbLi2EE10initializeEb
.L84:
	nop
	leave
	.cfi_def_cfa 7, 8
	ret
	.cfi_endproc
.LFE6573:
	.section	.gcc_except_table
.LLSDA6573:
	.byte	0xff
	.byte	0xff
	.byte	0x1
	.uleb128 .LLSDACSE6573-.LLSDACSB6573
.LLSDACSB6573:
.LLSDACSE6573:
	.section	.text._ZN5blitz24ListInitializationSwitchINS_10TinyVectorIbLi2EEEPbED2Ev,"axG",@progbits,_ZN5blitz24ListInitializationSwitchINS_10TinyVectorIbLi2EEEPbED5Ev,comdat
	.size	_ZN5blitz24ListInitializationSwitchINS_10TinyVectorIbLi2EEEPbED2Ev, .-_ZN5blitz24ListInitializationSwitchINS_10TinyVectorIbLi2EEEPbED2Ev
	.weak	_ZN5blitz24ListInitializationSwitchINS_10TinyVectorIbLi2EEEPbED1Ev
	.set	_ZN5blitz24ListInitializationSwitchINS_10TinyVectorIbLi2EEEPbED1Ev,_ZN5blitz24ListInitializationSwitchINS_10TinyVectorIbLi2EEEPbED2Ev
	.section	.text._ZN5blitz24ListInitializationSwitchINS_10TinyVectorIbLi2EEEPbEcmEb,"axG",@progbits,_ZN5blitz24ListInitializationSwitchINS_10TinyVectorIbLi2EEEPbEcmEb,comdat
	.align 2
	.weak	_ZN5blitz24ListInitializationSwitchINS_10TinyVectorIbLi2EEEPbEcmEb
	.type	_ZN5blitz24ListInitializationSwitchINS_10TinyVectorIbLi2EEEPbEcmEb, @function
_ZN5blitz24ListInitializationSwitchINS_10TinyVectorIbLi2EEEPbEcmEb:
.LFB6575:
	.cfi_startproc
	pushq	%rbp
	.cfi_def_cfa_offset 16
	.cfi_offset 6, -16
	movq	%rsp, %rbp
	.cfi_def_cfa_register 6
	subq	$32, %rsp
	movq	%rdi, -24(%rbp)
	movl	%esi, %eax
	movb	%al, -28(%rbp)
	movq	-24(%rbp), %rax
	movb	$0, 9(%rax)
	movq	-24(%rbp), %rax
	movq	(%rax), %rax
	movq	%rax, %rdi
	call	_ZN5blitz10TinyVectorIbLi2EE25getInitializationIteratorEv
	movq	%rax, -8(%rbp)
	movq	-24(%rbp), %rax
	movzbl	8(%rax), %edx
	movq	-8(%rbp), %rax
	movb	%dl, (%rax)
	addq	$1, -8(%rbp)
	movq	-8(%rbp), %rax
	movzbl	-28(%rbp), %edx
	movb	%dl, (%rax)
	addq	$1, -8(%rbp)
	movq	-8(%rbp), %rdx
	leaq	-16(%rbp), %rax
	movq	%rdx, %rsi
	movq	%rax, %rdi
	call	_ZN5blitz15ListInitializerIbPbEC1ES1_
	movq	-16(%rbp), %rax
	leave
	.cfi_def_cfa 7, 8
	ret
	.cfi_endproc
.LFE6575:
	.size	_ZN5blitz24ListInitializationSwitchINS_10TinyVectorIbLi2EEEPbEcmEb, .-_ZN5blitz24ListInitializationSwitchINS_10TinyVectorIbLi2EEEPbEcmEb
	.section	.text._ZN5blitz5ArrayIfLi2EEC2EiiNS_19GeneralArrayStorageILi2EEE,"axG",@progbits,_ZN5blitz5ArrayIfLi2EEC5EiiNS_19GeneralArrayStorageILi2EEE,comdat
	.align 2
	.weak	_ZN5blitz5ArrayIfLi2EEC2EiiNS_19GeneralArrayStorageILi2EEE
	.type	_ZN5blitz5ArrayIfLi2EEC2EiiNS_19GeneralArrayStorageILi2EEE, @function
_ZN5blitz5ArrayIfLi2EEC2EiiNS_19GeneralArrayStorageILi2EEE:
.LFB6577:
	.cfi_startproc
	.cfi_personality 0x9b,DW.ref.__gxx_personality_v0
	.cfi_lsda 0x1b,.LLSDA6577
	pushq	%rbp
	.cfi_def_cfa_offset 16
	.cfi_offset 6, -16
	movq	%rsp, %rbp
	.cfi_def_cfa_register 6
	pushq	%rbx
	subq	$40, %rsp
	.cfi_offset 3, -24
	movq	%rdi, -24(%rbp)
	movl	%esi, -28(%rbp)
	movl	%edx, -32(%rbp)
	movq	%rcx, -40(%rbp)
	movq	-24(%rbp), %rax
	movq	%rax, %rdi
	call	_ZN5blitz20MemoryBlockReferenceIfEC2Ev
	movq	-24(%rbp), %rax
	movq	%rax, %rdi
	call	_ZN5blitz6ETBaseINS_5ArrayIfLi2EEEEC2Ev
	movq	-24(%rbp), %rax
	leaq	16(%rax), %rdx
	movq	-40(%rbp), %rax
	movq	%rax, %rsi
	movq	%rdx, %rdi
.LEHB23:
	call	_ZN5blitz19GeneralArrayStorageILi2EEC1ERKS1_
.LEHE23:
	movq	-24(%rbp), %rax
	addq	$40, %rax
	movq	%rax, %rdi
.LEHB24:
	call	_ZN5blitz10TinyVectorIiLi2EEC1Ev
.LEHE24:
	movq	-24(%rbp), %rax
	addq	$48, %rax
	movq	%rax, %rdi
.LEHB25:
	call	_ZN5blitz10TinyVectorIlLi2EEC1Ev
.LEHE25:
	movq	-24(%rbp), %rax
	addq	$40, %rax
	movl	$0, %esi
	movq	%rax, %rdi
	call	_ZN5blitz10TinyVectorIiLi2EEixEj
	movl	-28(%rbp), %edx
	movl	%edx, (%rax)
	movq	-24(%rbp), %rax
	addq	$40, %rax
	movl	$1, %esi
	movq	%rax, %rdi
	call	_ZN5blitz10TinyVectorIiLi2EEixEj
	movl	-32(%rbp), %edx
	movl	%edx, (%rax)
	movq	-24(%rbp), %rax
	movl	$1, %esi
	movq	%rax, %rdi
.LEHB26:
	call	_ZN5blitz5ArrayIfLi2EE12setupStorageEi
.LEHE26:
	jmp	.L96
.L95:
	movq	%rax, %rbx
	movq	-24(%rbp), %rax
	addq	$48, %rax
	movq	%rax, %rdi
	call	_ZN5blitz10TinyVectorIlLi2EED1Ev
	jmp	.L89
.L94:
	movq	%rax, %rbx
.L89:
	movq	-24(%rbp), %rax
	addq	$40, %rax
	movq	%rax, %rdi
	call	_ZN5blitz10TinyVectorIiLi2EED1Ev
	jmp	.L90
.L93:
	movq	%rax, %rbx
.L90:
	movq	-24(%rbp), %rax
	addq	$16, %rax
	movq	%rax, %rdi
	call	_ZN5blitz19GeneralArrayStorageILi2EED1Ev
	jmp	.L91
.L92:
	movq	%rax, %rbx
.L91:
	movq	-24(%rbp), %rax
	movq	%rax, %rdi
	call	_ZN5blitz20MemoryBlockReferenceIfED2Ev
	movq	%rbx, %rax
	movq	%rax, %rdi
.LEHB27:
	call	_Unwind_Resume@PLT
.LEHE27:
.L96:
	movq	-8(%rbp), %rbx
	leave
	.cfi_def_cfa 7, 8
	ret
	.cfi_endproc
.LFE6577:
	.section	.gcc_except_table
.LLSDA6577:
	.byte	0xff
	.byte	0xff
	.byte	0x1
	.uleb128 .LLSDACSE6577-.LLSDACSB6577
.LLSDACSB6577:
	.uleb128 .LEHB23-.LFB6577
	.uleb128 .LEHE23-.LEHB23
	.uleb128 .L92-.LFB6577
	.uleb128 0
	.uleb128 .LEHB24-.LFB6577
	.uleb128 .LEHE24-.LEHB24
	.uleb128 .L93-.LFB6577
	.uleb128 0
	.uleb128 .LEHB25-.LFB6577
	.uleb128 .LEHE25-.LEHB25
	.uleb128 .L94-.LFB6577
	.uleb128 0
	.uleb128 .LEHB26-.LFB6577
	.uleb128 .LEHE26-.LEHB26
	.uleb128 .L95-.LFB6577
	.uleb128 0
	.uleb128 .LEHB27-.LFB6577
	.uleb128 .LEHE27-.LEHB27
	.uleb128 0
	.uleb128 0
.LLSDACSE6577:
	.section	.text._ZN5blitz5ArrayIfLi2EEC2EiiNS_19GeneralArrayStorageILi2EEE,"axG",@progbits,_ZN5blitz5ArrayIfLi2EEC5EiiNS_19GeneralArrayStorageILi2EEE,comdat
	.size	_ZN5blitz5ArrayIfLi2EEC2EiiNS_19GeneralArrayStorageILi2EEE, .-_ZN5blitz5ArrayIfLi2EEC2EiiNS_19GeneralArrayStorageILi2EEE
	.weak	_ZN5blitz5ArrayIfLi2EEC1EiiNS_19GeneralArrayStorageILi2EEE
	.set	_ZN5blitz5ArrayIfLi2EEC1EiiNS_19GeneralArrayStorageILi2EEE,_ZN5blitz5ArrayIfLi2EEC2EiiNS_19GeneralArrayStorageILi2EEE
	.section	.text._ZN5blitz20MemoryBlockReferenceIfED2Ev,"axG",@progbits,_ZN5blitz20MemoryBlockReferenceIfED5Ev,comdat
	.align 2
	.weak	_ZN5blitz20MemoryBlockReferenceIfED2Ev
	.type	_ZN5blitz20MemoryBlockReferenceIfED2Ev, @function
_ZN5blitz20MemoryBlockReferenceIfED2Ev:
.LFB6580:
	.cfi_startproc
	.cfi_personality 0x9b,DW.ref.__gxx_personality_v0
	.cfi_lsda 0x1b,.LLSDA6580
	pushq	%rbp
	.cfi_def_cfa_offset 16
	.cfi_offset 6, -16
	movq	%rsp, %rbp
	.cfi_def_cfa_register 6
	subq	$16, %rsp
	movq	%rdi, -8(%rbp)
	movq	-8(%rbp), %rax
	movq	%rax, %rdi
	call	_ZN5blitz20MemoryBlockReferenceIfE20blockRemoveReferenceEv
	nop
	leave
	.cfi_def_cfa 7, 8
	ret
	.cfi_endproc
.LFE6580:
	.section	.gcc_except_table
.LLSDA6580:
	.byte	0xff
	.byte	0xff
	.byte	0x1
	.uleb128 .LLSDACSE6580-.LLSDACSB6580
.LLSDACSB6580:
.LLSDACSE6580:
	.section	.text._ZN5blitz20MemoryBlockReferenceIfED2Ev,"axG",@progbits,_ZN5blitz20MemoryBlockReferenceIfED5Ev,comdat
	.size	_ZN5blitz20MemoryBlockReferenceIfED2Ev, .-_ZN5blitz20MemoryBlockReferenceIfED2Ev
	.weak	_ZN5blitz20MemoryBlockReferenceIfED1Ev
	.set	_ZN5blitz20MemoryBlockReferenceIfED1Ev,_ZN5blitz20MemoryBlockReferenceIfED2Ev
	.section	.text._ZN5blitz10TinyVectorIlLi2EED2Ev,"axG",@progbits,_ZN5blitz10TinyVectorIlLi2EED5Ev,comdat
	.align 2
	.weak	_ZN5blitz10TinyVectorIlLi2EED2Ev
	.type	_ZN5blitz10TinyVectorIlLi2EED2Ev, @function
_ZN5blitz10TinyVectorIlLi2EED2Ev:
.LFB6583:
	.cfi_startproc
	pushq	%rbp
	.cfi_def_cfa_offset 16
	.cfi_offset 6, -16
	movq	%rsp, %rbp
	.cfi_def_cfa_register 6
	movq	%rdi, -8(%rbp)
	nop
	popq	%rbp
	.cfi_def_cfa 7, 8
	ret
	.cfi_endproc
.LFE6583:
	.size	_ZN5blitz10TinyVectorIlLi2EED2Ev, .-_ZN5blitz10TinyVectorIlLi2EED2Ev
	.weak	_ZN5blitz10TinyVectorIlLi2EED1Ev
	.set	_ZN5blitz10TinyVectorIlLi2EED1Ev,_ZN5blitz10TinyVectorIlLi2EED2Ev
	.section	.text._ZN5blitz5ArrayIfLi2EEC2ERKS1_,"axG",@progbits,_ZN5blitz5ArrayIfLi2EEC5ERKS1_,comdat
	.align 2
	.weak	_ZN5blitz5ArrayIfLi2EEC2ERKS1_
	.type	_ZN5blitz5ArrayIfLi2EEC2ERKS1_, @function
_ZN5blitz5ArrayIfLi2EEC2ERKS1_:
.LFB6586:
	.cfi_startproc
	.cfi_personality 0x9b,DW.ref.__gxx_personality_v0
	.cfi_lsda 0x1b,.LLSDA6586
	pushq	%rbp
	.cfi_def_cfa_offset 16
	.cfi_offset 6, -16
	movq	%rsp, %rbp
	.cfi_def_cfa_register 6
	pushq	%rbx
	subq	$24, %rsp
	.cfi_offset 3, -24
	movq	%rdi, -24(%rbp)
	movq	%rsi, -32(%rbp)
	movq	-24(%rbp), %rax
	movq	%rax, %rdi
	call	_ZN5blitz20MemoryBlockReferenceIfEC2Ev
	movq	-32(%rbp), %rdx
	movq	-24(%rbp), %rax
	movq	%rdx, %rsi
	movq	%rax, %rdi
	call	_ZN5blitz6ETBaseINS_5ArrayIfLi2EEEEC2ERKS3_
	movq	-24(%rbp), %rax
	addq	$16, %rax
	movl	$0, %esi
	movq	%rax, %rdi
.LEHB28:
	call	_ZN5blitz19GeneralArrayStorageILi2EEC1ENS_13paddingPolicyE
.LEHE28:
	movq	-24(%rbp), %rax
	addq	$40, %rax
	movq	%rax, %rdi
.LEHB29:
	call	_ZN5blitz10TinyVectorIiLi2EEC1Ev
.LEHE29:
	movq	-24(%rbp), %rax
	addq	$48, %rax
	movq	%rax, %rdi
.LEHB30:
	call	_ZN5blitz10TinyVectorIlLi2EEC1Ev
.LEHE30:
	movq	-32(%rbp), %rdx
	movq	-24(%rbp), %rax
	movq	%rdx, %rsi
	movq	%rax, %rdi
.LEHB31:
	call	_ZN5blitz5ArrayIfLi2EE9referenceERKS1_
.LEHE31:
	jmp	.L108
.L107:
	movq	%rax, %rbx
	movq	-24(%rbp), %rax
	addq	$48, %rax
	movq	%rax, %rdi
	call	_ZN5blitz10TinyVectorIlLi2EED1Ev
	jmp	.L101
.L106:
	movq	%rax, %rbx
.L101:
	movq	-24(%rbp), %rax
	addq	$40, %rax
	movq	%rax, %rdi
	call	_ZN5blitz10TinyVectorIiLi2EED1Ev
	jmp	.L102
.L105:
	movq	%rax, %rbx
.L102:
	movq	-24(%rbp), %rax
	addq	$16, %rax
	movq	%rax, %rdi
	call	_ZN5blitz19GeneralArrayStorageILi2EED1Ev
	jmp	.L103
.L104:
	movq	%rax, %rbx
.L103:
	movq	-24(%rbp), %rax
	movq	%rax, %rdi
	call	_ZN5blitz20MemoryBlockReferenceIfED2Ev
	movq	%rbx, %rax
	movq	%rax, %rdi
.LEHB32:
	call	_Unwind_Resume@PLT
.LEHE32:
.L108:
	movq	-8(%rbp), %rbx
	leave
	.cfi_def_cfa 7, 8
	ret
	.cfi_endproc
.LFE6586:
	.section	.gcc_except_table
.LLSDA6586:
	.byte	0xff
	.byte	0xff
	.byte	0x1
	.uleb128 .LLSDACSE6586-.LLSDACSB6586
.LLSDACSB6586:
	.uleb128 .LEHB28-.LFB6586
	.uleb128 .LEHE28-.LEHB28
	.uleb128 .L104-.LFB6586
	.uleb128 0
	.uleb128 .LEHB29-.LFB6586
	.uleb128 .LEHE29-.LEHB29
	.uleb128 .L105-.LFB6586
	.uleb128 0
	.uleb128 .LEHB30-.LFB6586
	.uleb128 .LEHE30-.LEHB30
	.uleb128 .L106-.LFB6586
	.uleb128 0
	.uleb128 .LEHB31-.LFB6586
	.uleb128 .LEHE31-.LEHB31
	.uleb128 .L107-.LFB6586
	.uleb128 0
	.uleb128 .LEHB32-.LFB6586
	.uleb128 .LEHE32-.LEHB32
	.uleb128 0
	.uleb128 0
.LLSDACSE6586:
	.section	.text._ZN5blitz5ArrayIfLi2EEC2ERKS1_,"axG",@progbits,_ZN5blitz5ArrayIfLi2EEC5ERKS1_,comdat
	.size	_ZN5blitz5ArrayIfLi2EEC2ERKS1_, .-_ZN5blitz5ArrayIfLi2EEC2ERKS1_
	.weak	_ZN5blitz5ArrayIfLi2EEC1ERKS1_
	.set	_ZN5blitz5ArrayIfLi2EEC1ERKS1_,_ZN5blitz5ArrayIfLi2EEC2ERKS1_
	.section	.text._ZN5blitz10TinyVectorIbLi2EEC2Ev,"axG",@progbits,_ZN5blitz10TinyVectorIbLi2EEC5Ev,comdat
	.align 2
	.weak	_ZN5blitz10TinyVectorIbLi2EEC2Ev
	.type	_ZN5blitz10TinyVectorIbLi2EEC2Ev, @function
_ZN5blitz10TinyVectorIbLi2EEC2Ev:
.LFB6743:
	.cfi_startproc
	pushq	%rbp
	.cfi_def_cfa_offset 16
	.cfi_offset 6, -16
	movq	%rsp, %rbp
	.cfi_def_cfa_register 6
	subq	$16, %rsp
	movq	%rdi, -8(%rbp)
	movq	-8(%rbp), %rax
	movq	%rax, %rdi
	call	_ZN5blitz6ETBaseINS_10TinyVectorIbLi2EEEEC2Ev
	nop
	leave
	.cfi_def_cfa 7, 8
	ret
	.cfi_endproc
.LFE6743:
	.size	_ZN5blitz10TinyVectorIbLi2EEC2Ev, .-_ZN5blitz10TinyVectorIbLi2EEC2Ev
	.weak	_ZN5blitz10TinyVectorIbLi2EEC1Ev
	.set	_ZN5blitz10TinyVectorIbLi2EEC1Ev,_ZN5blitz10TinyVectorIbLi2EEC2Ev
	.section	.text._ZN5blitz10TinyVectorIbLi2EED2Ev,"axG",@progbits,_ZN5blitz10TinyVectorIbLi2EED5Ev,comdat
	.align 2
	.weak	_ZN5blitz10TinyVectorIbLi2EED2Ev
	.type	_ZN5blitz10TinyVectorIbLi2EED2Ev, @function
_ZN5blitz10TinyVectorIbLi2EED2Ev:
.LFB6746:
	.cfi_startproc
	pushq	%rbp
	.cfi_def_cfa_offset 16
	.cfi_offset 6, -16
	movq	%rsp, %rbp
	.cfi_def_cfa_register 6
	movq	%rdi, -8(%rbp)
	nop
	popq	%rbp
	.cfi_def_cfa 7, 8
	ret
	.cfi_endproc
.LFE6746:
	.size	_ZN5blitz10TinyVectorIbLi2EED2Ev, .-_ZN5blitz10TinyVectorIbLi2EED2Ev
	.weak	_ZN5blitz10TinyVectorIbLi2EED1Ev
	.set	_ZN5blitz10TinyVectorIbLi2EED1Ev,_ZN5blitz10TinyVectorIbLi2EED2Ev
	.section	.text._ZN5blitz10TinyVectorIiLi2EEC2Ev,"axG",@progbits,_ZN5blitz10TinyVectorIiLi2EEC5Ev,comdat
	.align 2
	.weak	_ZN5blitz10TinyVectorIiLi2EEC2Ev
	.type	_ZN5blitz10TinyVectorIiLi2EEC2Ev, @function
_ZN5blitz10TinyVectorIiLi2EEC2Ev:
.LFB6749:
	.cfi_startproc
	pushq	%rbp
	.cfi_def_cfa_offset 16
	.cfi_offset 6, -16
	movq	%rsp, %rbp
	.cfi_def_cfa_register 6
	subq	$16, %rsp
	movq	%rdi, -8(%rbp)
	movq	-8(%rbp), %rax
	movq	%rax, %rdi
	call	_ZN5blitz6ETBaseINS_10TinyVectorIiLi2EEEEC2Ev
	nop
	leave
	.cfi_def_cfa 7, 8
	ret
	.cfi_endproc
.LFE6749:
	.size	_ZN5blitz10TinyVectorIiLi2EEC2Ev, .-_ZN5blitz10TinyVectorIiLi2EEC2Ev
	.weak	_ZN5blitz10TinyVectorIiLi2EEC1Ev
	.set	_ZN5blitz10TinyVectorIiLi2EEC1Ev,_ZN5blitz10TinyVectorIiLi2EEC2Ev
	.section	.text._ZN5blitz10TinyVectorIiLi2EEclEj,"axG",@progbits,_ZN5blitz10TinyVectorIiLi2EEclEj,comdat
	.align 2
	.weak	_ZN5blitz10TinyVectorIiLi2EEclEj
	.type	_ZN5blitz10TinyVectorIiLi2EEclEj, @function
_ZN5blitz10TinyVectorIiLi2EEclEj:
.LFB6751:
	.cfi_startproc
	pushq	%rbp
	.cfi_def_cfa_offset 16
	.cfi_offset 6, -16
	movq	%rsp, %rbp
	.cfi_def_cfa_register 6
	movq	%rdi, -8(%rbp)
	movl	%esi, -12(%rbp)
	movl	-12(%rbp), %eax
	leaq	0(,%rax,4), %rdx
	movq	-8(%rbp), %rax
	addq	%rdx, %rax
	popq	%rbp
	.cfi_def_cfa 7, 8
	ret
	.cfi_endproc
.LFE6751:
	.size	_ZN5blitz10TinyVectorIiLi2EEclEj, .-_ZN5blitz10TinyVectorIiLi2EEclEj
	.section	.text._ZN5blitz10TinyVectorIbLi2EEC2ERKS1_,"axG",@progbits,_ZN5blitz10TinyVectorIbLi2EEC5ERKS1_,comdat
	.align 2
	.weak	_ZN5blitz10TinyVectorIbLi2EEC2ERKS1_
	.type	_ZN5blitz10TinyVectorIbLi2EEC2ERKS1_, @function
_ZN5blitz10TinyVectorIbLi2EEC2ERKS1_:
.LFB6753:
	.cfi_startproc
	pushq	%rbp
	.cfi_def_cfa_offset 16
	.cfi_offset 6, -16
	movq	%rsp, %rbp
	.cfi_def_cfa_register 6
	subq	$32, %rsp
	movq	%rdi, -24(%rbp)
	movq	%rsi, -32(%rbp)
	movq	-24(%rbp), %rax
	movq	%rax, %rdi
	call	_ZN5blitz6ETBaseINS_10TinyVectorIbLi2EEEEC2Ev
	movl	$0, -4(%rbp)
.L116:
	cmpl	$1, -4(%rbp)
	jg	.L117
	movq	-32(%rbp), %rdx
	movl	-4(%rbp), %eax
	cltq
	movzbl	(%rdx,%rax), %ecx
	movq	-24(%rbp), %rdx
	movl	-4(%rbp), %eax
	cltq
	movb	%cl, (%rdx,%rax)
	addl	$1, -4(%rbp)
	jmp	.L116
.L117:
	nop
	leave
	.cfi_def_cfa 7, 8
	ret
	.cfi_endproc
.LFE6753:
	.size	_ZN5blitz10TinyVectorIbLi2EEC2ERKS1_, .-_ZN5blitz10TinyVectorIbLi2EEC2ERKS1_
	.weak	_ZN5blitz10TinyVectorIbLi2EEC1ERKS1_
	.set	_ZN5blitz10TinyVectorIbLi2EEC1ERKS1_,_ZN5blitz10TinyVectorIbLi2EEC2ERKS1_
	.section	.text._ZN5blitz6ETBaseINS_10TinyVectorIiLi2EEEEC2Ev,"axG",@progbits,_ZN5blitz6ETBaseINS_10TinyVectorIiLi2EEEEC5Ev,comdat
	.align 2
	.weak	_ZN5blitz6ETBaseINS_10TinyVectorIiLi2EEEEC2Ev
	.type	_ZN5blitz6ETBaseINS_10TinyVectorIiLi2EEEEC2Ev, @function
_ZN5blitz6ETBaseINS_10TinyVectorIiLi2EEEEC2Ev:
.LFB7007:
	.cfi_startproc
	pushq	%rbp
	.cfi_def_cfa_offset 16
	.cfi_offset 6, -16
	movq	%rsp, %rbp
	.cfi_def_cfa_register 6
	movq	%rdi, -8(%rbp)
	nop
	popq	%rbp
	.cfi_def_cfa 7, 8
	ret
	.cfi_endproc
.LFE7007:
	.size	_ZN5blitz6ETBaseINS_10TinyVectorIiLi2EEEEC2Ev, .-_ZN5blitz6ETBaseINS_10TinyVectorIiLi2EEEEC2Ev
	.weak	_ZN5blitz6ETBaseINS_10TinyVectorIiLi2EEEEC1Ev
	.set	_ZN5blitz6ETBaseINS_10TinyVectorIiLi2EEEEC1Ev,_ZN5blitz6ETBaseINS_10TinyVectorIiLi2EEEEC2Ev
	.section	.text._ZNK5blitz5ArrayIfLi2EE10dataOffsetEv,"axG",@progbits,_ZNK5blitz5ArrayIfLi2EE10dataOffsetEv,comdat
	.align 2
	.weak	_ZNK5blitz5ArrayIfLi2EE10dataOffsetEv
	.type	_ZNK5blitz5ArrayIfLi2EE10dataOffsetEv, @function
_ZNK5blitz5ArrayIfLi2EE10dataOffsetEv:
.LFB7039:
	.cfi_startproc
	pushq	%rbp
	.cfi_def_cfa_offset 16
	.cfi_offset 6, -16
	movq	%rsp, %rbp
	.cfi_def_cfa_register 6
	pushq	%rbx
	subq	$24, %rsp
	.cfi_offset 3, -24
	movq	%rdi, -24(%rbp)
	movq	-24(%rbp), %rax
	leaq	48(%rax), %rbx
	movq	-24(%rbp), %rax
	addq	$16, %rax
	movq	%rax, %rdi
	call	_ZNK5blitz19GeneralArrayStorageILi2EE4baseEv
	movq	%rbx, %rsi
	movq	%rax, %rdi
	call	_ZN5blitz3dotIilLi2EEENS_13promote_traitIT_T0_E9T_promoteERKNS_10TinyVectorIS2_XT1_EEERKNS6_IS3_XT1_EEE
	movq	-8(%rbp), %rbx
	leave
	.cfi_def_cfa 7, 8
	ret
	.cfi_endproc
.LFE7039:
	.size	_ZNK5blitz5ArrayIfLi2EE10dataOffsetEv, .-_ZNK5blitz5ArrayIfLi2EE10dataOffsetEv
	.section	.text._ZNSt6chronomiIlSt5ratioILl1ELl1000000000EElS2_EENSt11common_typeIJNS_8durationIT_T0_EENS4_IT1_T2_EEEE4typeERKS7_RKSA_,"axG",@progbits,_ZNSt6chronomiIlSt5ratioILl1ELl1000000000EElS2_EENSt11common_typeIJNS_8durationIT_T0_EENS4_IT1_T2_EEEE4typeERKS7_RKSA_,comdat
	.weak	_ZNSt6chronomiIlSt5ratioILl1ELl1000000000EElS2_EENSt11common_typeIJNS_8durationIT_T0_EENS4_IT1_T2_EEEE4typeERKS7_RKSA_
	.type	_ZNSt6chronomiIlSt5ratioILl1ELl1000000000EElS2_EENSt11common_typeIJNS_8durationIT_T0_EENS4_IT1_T2_EEEE4typeERKS7_RKSA_, @function
_ZNSt6chronomiIlSt5ratioILl1ELl1000000000EElS2_EENSt11common_typeIJNS_8durationIT_T0_EENS4_IT1_T2_EEEE4typeERKS7_RKSA_:
.LFB7040:
	.cfi_startproc
	pushq	%rbp
	.cfi_def_cfa_offset 16
	.cfi_offset 6, -16
	movq	%rsp, %rbp
	.cfi_def_cfa_register 6
	pushq	%rbx
	subq	$56, %rsp
	.cfi_offset 3, -24
	movq	%rdi, -56(%rbp)
	movq	%rsi, -64(%rbp)
	movq	-56(%rbp), %rax
	movq	(%rax), %rax
	movq	%rax, -32(%rbp)
	leaq	-32(%rbp), %rax
	movq	%rax, %rdi
	call	_ZNKSt6chrono8durationIlSt5ratioILl1ELl1000000000EEE5countEv
	movq	%rax, %rbx
	movq	-64(%rbp), %rax
	movq	(%rax), %rax
	movq	%rax, -24(%rbp)
	leaq	-24(%rbp), %rax
	movq	%rax, %rdi
	call	_ZNKSt6chrono8durationIlSt5ratioILl1ELl1000000000EEE5countEv
	movq	%rax, %rdx
	movq	%rbx, %rax
	subq	%rdx, %rax
	movq	%rax, -40(%rbp)
	leaq	-40(%rbp), %rdx
	leaq	-48(%rbp), %rax
	movq	%rdx, %rsi
	movq	%rax, %rdi
	call	_ZNSt6chrono8durationIlSt5ratioILl1ELl1000000000EEEC1IlvEERKT_
	movq	-48(%rbp), %rax
	movq	-8(%rbp), %rbx
	leave
	.cfi_def_cfa 7, 8
	ret
	.cfi_endproc
.LFE7040:
	.size	_ZNSt6chronomiIlSt5ratioILl1ELl1000000000EElS2_EENSt11common_typeIJNS_8durationIT_T0_EENS4_IT1_T2_EEEE4typeERKS7_RKSA_, .-_ZNSt6chronomiIlSt5ratioILl1ELl1000000000EElS2_EENSt11common_typeIJNS_8durationIT_T0_EENS4_IT1_T2_EEEE4typeERKS7_RKSA_
	.section	.text._ZNSt6chrono20__duration_cast_implINS_8durationIlSt5ratioILl1ELl1000000EEEES2_ILl1ELl1000EElLb1ELb0EE6__castIlS2_ILl1ELl1000000000EEEES4_RKNS1_IT_T0_EE,"axG",@progbits,_ZNSt6chrono20__duration_cast_implINS_8durationIlSt5ratioILl1ELl1000000EEEES2_ILl1ELl1000EElLb1ELb0EE6__castIlS2_ILl1ELl1000000000EEEES4_RKNS1_IT_T0_EE,comdat
	.weak	_ZNSt6chrono20__duration_cast_implINS_8durationIlSt5ratioILl1ELl1000000EEEES2_ILl1ELl1000EElLb1ELb0EE6__castIlS2_ILl1ELl1000000000EEEES4_RKNS1_IT_T0_EE
	.type	_ZNSt6chrono20__duration_cast_implINS_8durationIlSt5ratioILl1ELl1000000EEEES2_ILl1ELl1000EElLb1ELb0EE6__castIlS2_ILl1ELl1000000000EEEES4_RKNS1_IT_T0_EE, @function
_ZNSt6chrono20__duration_cast_implINS_8durationIlSt5ratioILl1ELl1000000EEEES2_ILl1ELl1000EElLb1ELb0EE6__castIlS2_ILl1ELl1000000000EEEES4_RKNS1_IT_T0_EE:
.LFB7041:
	.cfi_startproc
	pushq	%rbp
	.cfi_def_cfa_offset 16
	.cfi_offset 6, -16
	movq	%rsp, %rbp
	.cfi_def_cfa_register 6
	subq	$32, %rsp
	movq	%rdi, -24(%rbp)
	movq	-24(%rbp), %rax
	movq	%rax, %rdi
	call	_ZNKSt6chrono8durationIlSt5ratioILl1ELl1000000000EEE5countEv
	movq	%rax, %rcx
	movabsq	$2361183241434822607, %rdx
	movq	%rcx, %rax
	imulq	%rdx
	movq	%rdx, %rax
	sarq	$7, %rax
	sarq	$63, %rcx
	movq	%rcx, %rdx
	subq	%rdx, %rax
	movq	%rax, -8(%rbp)
	leaq	-8(%rbp), %rdx
	leaq	-16(%rbp), %rax
	movq	%rdx, %rsi
	movq	%rax, %rdi
	call	_ZNSt6chrono8durationIlSt5ratioILl1ELl1000000EEEC1IlvEERKT_
	movq	-16(%rbp), %rax
	leave
	.cfi_def_cfa 7, 8
	ret
	.cfi_endproc
.LFE7041:
	.size	_ZNSt6chrono20__duration_cast_implINS_8durationIlSt5ratioILl1ELl1000000EEEES2_ILl1ELl1000EElLb1ELb0EE6__castIlS2_ILl1ELl1000000000EEEES4_RKNS1_IT_T0_EE, .-_ZNSt6chrono20__duration_cast_implINS_8durationIlSt5ratioILl1ELl1000000EEEES2_ILl1ELl1000EElLb1ELb0EE6__castIlS2_ILl1ELl1000000000EEEES4_RKNS1_IT_T0_EE
	.section	.text._ZNK5blitz5ArrayIfLi2EE13assertInRangeEii,"axG",@progbits,_ZNK5blitz5ArrayIfLi2EE13assertInRangeEii,comdat
	.align 2
	.weak	_ZNK5blitz5ArrayIfLi2EE13assertInRangeEii
	.type	_ZNK5blitz5ArrayIfLi2EE13assertInRangeEii, @function
_ZNK5blitz5ArrayIfLi2EE13assertInRangeEii:
.LFB7042:
	.cfi_startproc
	pushq	%rbp
	.cfi_def_cfa_offset 16
	.cfi_offset 6, -16
	movq	%rsp, %rbp
	.cfi_def_cfa_register 6
	movq	%rdi, -8(%rbp)
	movl	%esi, -12(%rbp)
	movl	%edx, -16(%rbp)
	movl	$1, %eax
	popq	%rbp
	.cfi_def_cfa 7, 8
	ret
	.cfi_endproc
.LFE7042:
	.size	_ZNK5blitz5ArrayIfLi2EE13assertInRangeEii, .-_ZNK5blitz5ArrayIfLi2EE13assertInRangeEii
	.section	.text._ZN5blitz10TinyVectorIlLi2EEixEj,"axG",@progbits,_ZN5blitz10TinyVectorIlLi2EEixEj,comdat
	.align 2
	.weak	_ZN5blitz10TinyVectorIlLi2EEixEj
	.type	_ZN5blitz10TinyVectorIlLi2EEixEj, @function
_ZN5blitz10TinyVectorIlLi2EEixEj:
.LFB7043:
	.cfi_startproc
	pushq	%rbp
	.cfi_def_cfa_offset 16
	.cfi_offset 6, -16
	movq	%rsp, %rbp
	.cfi_def_cfa_register 6
	movq	%rdi, -8(%rbp)
	movl	%esi, -12(%rbp)
	movl	-12(%rbp), %eax
	leaq	0(,%rax,8), %rdx
	movq	-8(%rbp), %rax
	addq	%rdx, %rax
	popq	%rbp
	.cfi_def_cfa 7, 8
	ret
	.cfi_endproc
.LFE7043:
	.size	_ZN5blitz10TinyVectorIlLi2EEixEj, .-_ZN5blitz10TinyVectorIlLi2EEixEj
	.section	.text._ZN5blitz24ListInitializationSwitchINS_10TinyVectorIiLi2EEEPiEC2ERS2_i,"axG",@progbits,_ZN5blitz24ListInitializationSwitchINS_10TinyVectorIiLi2EEEPiEC5ERS2_i,comdat
	.align 2
	.weak	_ZN5blitz24ListInitializationSwitchINS_10TinyVectorIiLi2EEEPiEC2ERS2_i
	.type	_ZN5blitz24ListInitializationSwitchINS_10TinyVectorIiLi2EEEPiEC2ERS2_i, @function
_ZN5blitz24ListInitializationSwitchINS_10TinyVectorIiLi2EEEPiEC2ERS2_i:
.LFB7045:
	.cfi_startproc
	pushq	%rbp
	.cfi_def_cfa_offset 16
	.cfi_offset 6, -16
	movq	%rsp, %rbp
	.cfi_def_cfa_register 6
	movq	%rdi, -8(%rbp)
	movq	%rsi, -16(%rbp)
	movl	%edx, -20(%rbp)
	movq	-8(%rbp), %rax
	movq	-16(%rbp), %rdx
	movq	%rdx, (%rax)
	movq	-8(%rbp), %rax
	movl	-20(%rbp), %edx
	movl	%edx, 8(%rax)
	movq	-8(%rbp), %rax
	movb	$1, 12(%rax)
	nop
	popq	%rbp
	.cfi_def_cfa 7, 8
	ret
	.cfi_endproc
.LFE7045:
	.size	_ZN5blitz24ListInitializationSwitchINS_10TinyVectorIiLi2EEEPiEC2ERS2_i, .-_ZN5blitz24ListInitializationSwitchINS_10TinyVectorIiLi2EEEPiEC2ERS2_i
	.weak	_ZN5blitz24ListInitializationSwitchINS_10TinyVectorIiLi2EEEPiEC1ERS2_i
	.set	_ZN5blitz24ListInitializationSwitchINS_10TinyVectorIiLi2EEEPiEC1ERS2_i,_ZN5blitz24ListInitializationSwitchINS_10TinyVectorIiLi2EEEPiEC2ERS2_i
	.section	.text._ZN5blitz10TinyVectorIiLi2EE10initializeEi,"axG",@progbits,_ZN5blitz10TinyVectorIiLi2EE10initializeEi,comdat
	.align 2
	.weak	_ZN5blitz10TinyVectorIiLi2EE10initializeEi
	.type	_ZN5blitz10TinyVectorIiLi2EE10initializeEi, @function
_ZN5blitz10TinyVectorIiLi2EE10initializeEi:
.LFB7050:
	.cfi_startproc
	pushq	%rbp
	.cfi_def_cfa_offset 16
	.cfi_offset 6, -16
	movq	%rsp, %rbp
	.cfi_def_cfa_register 6
	subq	$32, %rsp
	movq	%rdi, -24(%rbp)
	movl	%esi, -28(%rbp)
	leaq	-28(%rbp), %rdx
	leaq	-4(%rbp), %rax
	movq	%rdx, %rsi
	movq	%rax, %rdi
	call	_ZN5blitz13_bz_ArrayExprINS_21_bz_ArrayExprConstantIiEEEC1IiEERKT_
	leaq	-4(%rbp), %rdx
	movq	-24(%rbp), %rax
	movq	%rdx, %rsi
	movq	%rax, %rdi
	call	_ZN5blitz10TinyVectorIiLi2EEaSINS_13_bz_ArrayExprINS_21_bz_ArrayExprConstantIiEEEEEERS1_RKNS_6ETBaseIT_EE
	movq	-24(%rbp), %rax
	leave
	.cfi_def_cfa 7, 8
	ret
	.cfi_endproc
.LFE7050:
	.size	_ZN5blitz10TinyVectorIiLi2EE10initializeEi, .-_ZN5blitz10TinyVectorIiLi2EE10initializeEi
	.section	.text._ZN5blitz10TinyVectorIiLi2EE25getInitializationIteratorEv,"axG",@progbits,_ZN5blitz10TinyVectorIiLi2EE25getInitializationIteratorEv,comdat
	.align 2
	.weak	_ZN5blitz10TinyVectorIiLi2EE25getInitializationIteratorEv
	.type	_ZN5blitz10TinyVectorIiLi2EE25getInitializationIteratorEv, @function
_ZN5blitz10TinyVectorIiLi2EE25getInitializationIteratorEv:
.LFB7051:
	.cfi_startproc
	pushq	%rbp
	.cfi_def_cfa_offset 16
	.cfi_offset 6, -16
	movq	%rsp, %rbp
	.cfi_def_cfa_register 6
	subq	$16, %rsp
	movq	%rdi, -8(%rbp)
	movq	-8(%rbp), %rax
	movq	%rax, %rdi
	call	_ZN5blitz10TinyVectorIiLi2EE9dataFirstEv
	leave
	.cfi_def_cfa 7, 8
	ret
	.cfi_endproc
.LFE7051:
	.size	_ZN5blitz10TinyVectorIiLi2EE25getInitializationIteratorEv, .-_ZN5blitz10TinyVectorIiLi2EE25getInitializationIteratorEv
	.section	.text._ZN5blitz15ListInitializerIiPiEC2ES1_,"axG",@progbits,_ZN5blitz15ListInitializerIiPiEC5ES1_,comdat
	.align 2
	.weak	_ZN5blitz15ListInitializerIiPiEC2ES1_
	.type	_ZN5blitz15ListInitializerIiPiEC2ES1_, @function
_ZN5blitz15ListInitializerIiPiEC2ES1_:
.LFB7053:
	.cfi_startproc
	pushq	%rbp
	.cfi_def_cfa_offset 16
	.cfi_offset 6, -16
	movq	%rsp, %rbp
	.cfi_def_cfa_register 6
	movq	%rdi, -8(%rbp)
	movq	%rsi, -16(%rbp)
	movq	-8(%rbp), %rax
	movq	-16(%rbp), %rdx
	movq	%rdx, (%rax)
	nop
	popq	%rbp
	.cfi_def_cfa 7, 8
	ret
	.cfi_endproc
.LFE7053:
	.size	_ZN5blitz15ListInitializerIiPiEC2ES1_, .-_ZN5blitz15ListInitializerIiPiEC2ES1_
	.weak	_ZN5blitz15ListInitializerIiPiEC1ES1_
	.set	_ZN5blitz15ListInitializerIiPiEC1ES1_,_ZN5blitz15ListInitializerIiPiEC2ES1_
	.section	.text._ZN5blitz24ListInitializationSwitchINS_10TinyVectorIbLi2EEEPbEC2ERS2_b,"axG",@progbits,_ZN5blitz24ListInitializationSwitchINS_10TinyVectorIbLi2EEEPbEC5ERS2_b,comdat
	.align 2
	.weak	_ZN5blitz24ListInitializationSwitchINS_10TinyVectorIbLi2EEEPbEC2ERS2_b
	.type	_ZN5blitz24ListInitializationSwitchINS_10TinyVectorIbLi2EEEPbEC2ERS2_b, @function
_ZN5blitz24ListInitializationSwitchINS_10TinyVectorIbLi2EEEPbEC2ERS2_b:
.LFB7056:
	.cfi_startproc
	pushq	%rbp
	.cfi_def_cfa_offset 16
	.cfi_offset 6, -16
	movq	%rsp, %rbp
	.cfi_def_cfa_register 6
	movq	%rdi, -8(%rbp)
	movq	%rsi, -16(%rbp)
	movl	%edx, %eax
	movb	%al, -20(%rbp)
	movq	-8(%rbp), %rax
	movq	-16(%rbp), %rdx
	movq	%rdx, (%rax)
	movq	-8(%rbp), %rax
	movzbl	-20(%rbp), %edx
	movb	%dl, 8(%rax)
	movq	-8(%rbp), %rax
	movb	$1, 9(%rax)
	nop
	popq	%rbp
	.cfi_def_cfa 7, 8
	ret
	.cfi_endproc
.LFE7056:
	.size	_ZN5blitz24ListInitializationSwitchINS_10TinyVectorIbLi2EEEPbEC2ERS2_b, .-_ZN5blitz24ListInitializationSwitchINS_10TinyVectorIbLi2EEEPbEC2ERS2_b
	.weak	_ZN5blitz24ListInitializationSwitchINS_10TinyVectorIbLi2EEEPbEC1ERS2_b
	.set	_ZN5blitz24ListInitializationSwitchINS_10TinyVectorIbLi2EEEPbEC1ERS2_b,_ZN5blitz24ListInitializationSwitchINS_10TinyVectorIbLi2EEEPbEC2ERS2_b
	.section	.text._ZN5blitz10TinyVectorIbLi2EE10initializeEb,"axG",@progbits,_ZN5blitz10TinyVectorIbLi2EE10initializeEb,comdat
	.align 2
	.weak	_ZN5blitz10TinyVectorIbLi2EE10initializeEb
	.type	_ZN5blitz10TinyVectorIbLi2EE10initializeEb, @function
_ZN5blitz10TinyVectorIbLi2EE10initializeEb:
.LFB7061:
	.cfi_startproc
	pushq	%rbp
	.cfi_def_cfa_offset 16
	.cfi_offset 6, -16
	movq	%rsp, %rbp
	.cfi_def_cfa_register 6
	subq	$32, %rsp
	movq	%rdi, -24(%rbp)
	movl	%esi, %eax
	movb	%al, -28(%rbp)
	leaq	-28(%rbp), %rdx
	leaq	-1(%rbp), %rax
	movq	%rdx, %rsi
	movq	%rax, %rdi
	call	_ZN5blitz13_bz_ArrayExprINS_21_bz_ArrayExprConstantIbEEEC1IbEERKT_
	leaq	-1(%rbp), %rdx
	movq	-24(%rbp), %rax
	movq	%rdx, %rsi
	movq	%rax, %rdi
	call	_ZN5blitz10TinyVectorIbLi2EEaSINS_13_bz_ArrayExprINS_21_bz_ArrayExprConstantIbEEEEEERS1_RKNS_6ETBaseIT_EE
	movq	-24(%rbp), %rax
	leave
	.cfi_def_cfa 7, 8
	ret
	.cfi_endproc
.LFE7061:
	.size	_ZN5blitz10TinyVectorIbLi2EE10initializeEb, .-_ZN5blitz10TinyVectorIbLi2EE10initializeEb
	.section	.text._ZN5blitz10TinyVectorIbLi2EE25getInitializationIteratorEv,"axG",@progbits,_ZN5blitz10TinyVectorIbLi2EE25getInitializationIteratorEv,comdat
	.align 2
	.weak	_ZN5blitz10TinyVectorIbLi2EE25getInitializationIteratorEv
	.type	_ZN5blitz10TinyVectorIbLi2EE25getInitializationIteratorEv, @function
_ZN5blitz10TinyVectorIbLi2EE25getInitializationIteratorEv:
.LFB7062:
	.cfi_startproc
	pushq	%rbp
	.cfi_def_cfa_offset 16
	.cfi_offset 6, -16
	movq	%rsp, %rbp
	.cfi_def_cfa_register 6
	subq	$16, %rsp
	movq	%rdi, -8(%rbp)
	movq	-8(%rbp), %rax
	movq	%rax, %rdi
	call	_ZN5blitz10TinyVectorIbLi2EE9dataFirstEv
	leave
	.cfi_def_cfa 7, 8
	ret
	.cfi_endproc
.LFE7062:
	.size	_ZN5blitz10TinyVectorIbLi2EE25getInitializationIteratorEv, .-_ZN5blitz10TinyVectorIbLi2EE25getInitializationIteratorEv
	.section	.text._ZN5blitz15ListInitializerIbPbEC2ES1_,"axG",@progbits,_ZN5blitz15ListInitializerIbPbEC5ES1_,comdat
	.align 2
	.weak	_ZN5blitz15ListInitializerIbPbEC2ES1_
	.type	_ZN5blitz15ListInitializerIbPbEC2ES1_, @function
_ZN5blitz15ListInitializerIbPbEC2ES1_:
.LFB7064:
	.cfi_startproc
	pushq	%rbp
	.cfi_def_cfa_offset 16
	.cfi_offset 6, -16
	movq	%rsp, %rbp
	.cfi_def_cfa_register 6
	movq	%rdi, -8(%rbp)
	movq	%rsi, -16(%rbp)
	movq	-8(%rbp), %rax
	movq	-16(%rbp), %rdx
	movq	%rdx, (%rax)
	nop
	popq	%rbp
	.cfi_def_cfa 7, 8
	ret
	.cfi_endproc
.LFE7064:
	.size	_ZN5blitz15ListInitializerIbPbEC2ES1_, .-_ZN5blitz15ListInitializerIbPbEC2ES1_
	.weak	_ZN5blitz15ListInitializerIbPbEC1ES1_
	.set	_ZN5blitz15ListInitializerIbPbEC1ES1_,_ZN5blitz15ListInitializerIbPbEC2ES1_
	.section	.text._ZN5blitz20MemoryBlockReferenceIfEC2Ev,"axG",@progbits,_ZN5blitz20MemoryBlockReferenceIfEC5Ev,comdat
	.align 2
	.weak	_ZN5blitz20MemoryBlockReferenceIfEC2Ev
	.type	_ZN5blitz20MemoryBlockReferenceIfEC2Ev, @function
_ZN5blitz20MemoryBlockReferenceIfEC2Ev:
.LFB7067:
	.cfi_startproc
	pushq	%rbp
	.cfi_def_cfa_offset 16
	.cfi_offset 6, -16
	movq	%rsp, %rbp
	.cfi_def_cfa_register 6
	movq	%rdi, -8(%rbp)
	movq	-8(%rbp), %rax
	movq	$0, 8(%rax)
	movq	-8(%rbp), %rax
	movq	$0, (%rax)
	nop
	popq	%rbp
	.cfi_def_cfa 7, 8
	ret
	.cfi_endproc
.LFE7067:
	.size	_ZN5blitz20MemoryBlockReferenceIfEC2Ev, .-_ZN5blitz20MemoryBlockReferenceIfEC2Ev
	.weak	_ZN5blitz20MemoryBlockReferenceIfEC1Ev
	.set	_ZN5blitz20MemoryBlockReferenceIfEC1Ev,_ZN5blitz20MemoryBlockReferenceIfEC2Ev
	.section	.text._ZN5blitz6ETBaseINS_5ArrayIfLi2EEEEC2Ev,"axG",@progbits,_ZN5blitz6ETBaseINS_5ArrayIfLi2EEEEC5Ev,comdat
	.align 2
	.weak	_ZN5blitz6ETBaseINS_5ArrayIfLi2EEEEC2Ev
	.type	_ZN5blitz6ETBaseINS_5ArrayIfLi2EEEEC2Ev, @function
_ZN5blitz6ETBaseINS_5ArrayIfLi2EEEEC2Ev:
.LFB7070:
	.cfi_startproc
	pushq	%rbp
	.cfi_def_cfa_offset 16
	.cfi_offset 6, -16
	movq	%rsp, %rbp
	.cfi_def_cfa_register 6
	movq	%rdi, -8(%rbp)
	nop
	popq	%rbp
	.cfi_def_cfa 7, 8
	ret
	.cfi_endproc
.LFE7070:
	.size	_ZN5blitz6ETBaseINS_5ArrayIfLi2EEEEC2Ev, .-_ZN5blitz6ETBaseINS_5ArrayIfLi2EEEEC2Ev
	.weak	_ZN5blitz6ETBaseINS_5ArrayIfLi2EEEEC1Ev
	.set	_ZN5blitz6ETBaseINS_5ArrayIfLi2EEEEC1Ev,_ZN5blitz6ETBaseINS_5ArrayIfLi2EEEEC2Ev
	.section	.text._ZN5blitz10TinyVectorIlLi2EEC2Ev,"axG",@progbits,_ZN5blitz10TinyVectorIlLi2EEC5Ev,comdat
	.align 2
	.weak	_ZN5blitz10TinyVectorIlLi2EEC2Ev
	.type	_ZN5blitz10TinyVectorIlLi2EEC2Ev, @function
_ZN5blitz10TinyVectorIlLi2EEC2Ev:
.LFB7073:
	.cfi_startproc
	pushq	%rbp
	.cfi_def_cfa_offset 16
	.cfi_offset 6, -16
	movq	%rsp, %rbp
	.cfi_def_cfa_register 6
	subq	$16, %rsp
	movq	%rdi, -8(%rbp)
	movq	-8(%rbp), %rax
	movq	%rax, %rdi
	call	_ZN5blitz6ETBaseINS_10TinyVectorIlLi2EEEEC2Ev
	nop
	leave
	.cfi_def_cfa 7, 8
	ret
	.cfi_endproc
.LFE7073:
	.size	_ZN5blitz10TinyVectorIlLi2EEC2Ev, .-_ZN5blitz10TinyVectorIlLi2EEC2Ev
	.weak	_ZN5blitz10TinyVectorIlLi2EEC1Ev
	.set	_ZN5blitz10TinyVectorIlLi2EEC1Ev,_ZN5blitz10TinyVectorIlLi2EEC2Ev
	.section	.text._ZN5blitz10TinyVectorIiLi2EEixEj,"axG",@progbits,_ZN5blitz10TinyVectorIiLi2EEixEj,comdat
	.align 2
	.weak	_ZN5blitz10TinyVectorIiLi2EEixEj
	.type	_ZN5blitz10TinyVectorIiLi2EEixEj, @function
_ZN5blitz10TinyVectorIiLi2EEixEj:
.LFB7075:
	.cfi_startproc
	pushq	%rbp
	.cfi_def_cfa_offset 16
	.cfi_offset 6, -16
	movq	%rsp, %rbp
	.cfi_def_cfa_register 6
	movq	%rdi, -8(%rbp)
	movl	%esi, -12(%rbp)
	movl	-12(%rbp), %eax
	leaq	0(,%rax,4), %rdx
	movq	-8(%rbp), %rax
	addq	%rdx, %rax
	popq	%rbp
	.cfi_def_cfa 7, 8
	ret
	.cfi_endproc
.LFE7075:
	.size	_ZN5blitz10TinyVectorIiLi2EEixEj, .-_ZN5blitz10TinyVectorIiLi2EEixEj
	.section	.text._ZN5blitz5ArrayIfLi2EE12setupStorageEi,"axG",@progbits,_ZN5blitz5ArrayIfLi2EE12setupStorageEi,comdat
	.align 2
	.weak	_ZN5blitz5ArrayIfLi2EE12setupStorageEi
	.type	_ZN5blitz5ArrayIfLi2EE12setupStorageEi, @function
_ZN5blitz5ArrayIfLi2EE12setupStorageEi:
.LFB7076:
	.cfi_startproc
	.cfi_personality 0x9b,DW.ref.__gxx_personality_v0
	.cfi_lsda 0x1b,.LLSDA7076
	pushq	%rbp
	.cfi_def_cfa_offset 16
	.cfi_offset 6, -16
	movq	%rsp, %rbp
	.cfi_def_cfa_register 6
	pushq	%rbx
	subq	$56, %rsp
	.cfi_offset 3, -24
	movq	%rdi, -56(%rbp)
	movl	%esi, -60(%rbp)
	movl	-60(%rbp), %eax
	addl	$1, %eax
	movl	%eax, -20(%rbp)
.L148:
	cmpl	$1, -20(%rbp)
	jg	.L147
	movq	-56(%rbp), %rax
	leaq	16(%rax), %rbx
	movq	-56(%rbp), %rax
	leaq	16(%rax), %rdx
	movl	-60(%rbp), %eax
	movl	%eax, %esi
	movq	%rdx, %rdi
.LEHB33:
	call	_ZNK5blitz19GeneralArrayStorageILi2EE4baseEi
	movl	%eax, %edx
	movl	-20(%rbp), %eax
	movl	%eax, %esi
	movq	%rbx, %rdi
	call	_ZN5blitz19GeneralArrayStorageILi2EE7setBaseEii
	movl	-60(%rbp), %eax
	movq	-56(%rbp), %rdx
	addq	$40, %rdx
	movl	%eax, %esi
	movq	%rdx, %rdi
	call	_ZN5blitz10TinyVectorIiLi2EEixEj
	movq	%rax, %rbx
	movl	-20(%rbp), %eax
	movq	-56(%rbp), %rdx
	addq	$40, %rdx
	movl	%eax, %esi
	movq	%rdx, %rdi
	call	_ZN5blitz10TinyVectorIiLi2EEixEj
	movl	(%rbx), %edx
	movl	%edx, (%rax)
	addl	$1, -20(%rbp)
	jmp	.L148
.L147:
	movq	-56(%rbp), %rax
	movq	%rax, %rdi
	call	_ZN5blitz5ArrayIfLi2EE14computeStridesEv
.LEHE33:
	movq	-56(%rbp), %rax
	movq	%rax, %rdi
	call	_ZNK5blitz5ArrayIfLi2EE6lengthEv
	movq	%rax, %rdx
	leaq	-40(%rbp), %rax
	movq	%rdx, %rsi
	movq	%rax, %rdi
	call	_ZN5blitz10TinyVectorIiLi2EEC1ERKS1_
	movq	-56(%rbp), %rax
	addq	$16, %rax
	movq	%rax, %rdi
	call	_ZNK5blitz19GeneralArrayStorageILi2EE7paddingEv
	movl	(%rax), %eax
	cmpl	$1, %eax
	sete	%al
	testb	%al, %al
	je	.L149
	movq	-56(%rbp), %rax
	movl	$0, %esi
	movq	%rax, %rdi
.LEHB34:
	call	_ZNK5blitz5ArrayIfLi2EE8orderingEi
	movl	%eax, %edx
	leaq	-40(%rbp), %rax
	movl	%edx, %esi
	movq	%rax, %rdi
	call	_ZN5blitz10TinyVectorIiLi2EEixEj
	movl	(%rax), %eax
	cltq
	movq	%rax, %rdi
	call	_ZN5blitz9simdTypesIfE12paddedLengthEm
	movq	%rax, %rbx
	movq	-56(%rbp), %rax
	movl	$0, %esi
	movq	%rax, %rdi
	call	_ZNK5blitz5ArrayIfLi2EE8orderingEi
	movl	%eax, %edx
	leaq	-40(%rbp), %rax
	movl	%edx, %esi
	movq	%rax, %rdi
	call	_ZN5blitz10TinyVectorIiLi2EEixEj
	movl	%ebx, %edx
	movl	%edx, (%rax)
.L149:
	leaq	-40(%rbp), %rax
	movq	%rax, %rdi
	call	_ZN5blitz14_bz_returntypeImE7productIiLi2EEEmRKNS_10TinyVectorIT_XT0_EEE
	movq	%rax, -32(%rbp)
	cmpq	$0, -32(%rbp)
	jne	.L150
	movq	-56(%rbp), %rax
	movq	%rax, %rdi
	call	_ZN5blitz20MemoryBlockReferenceIfE17changeToNullBlockEv
	jmp	.L151
.L150:
	movq	-56(%rbp), %rax
	movq	-32(%rbp), %rdx
	movq	%rdx, %rsi
	movq	%rax, %rdi
	call	_ZN5blitz20MemoryBlockReferenceIfE8newBlockEm
.LEHE34:
.L151:
	movq	-56(%rbp), %rax
	movq	(%rax), %rdx
	movq	-56(%rbp), %rax
	movq	64(%rax), %rax
	salq	$2, %rax
	addq	%rax, %rdx
	movq	-56(%rbp), %rax
	movq	%rdx, (%rax)
	leaq	-40(%rbp), %rax
	movq	%rax, %rdi
	call	_ZN5blitz10TinyVectorIiLi2EED1Ev
	jmp	.L154
.L153:
	movq	%rax, %rbx
	leaq	-40(%rbp), %rax
	movq	%rax, %rdi
	call	_ZN5blitz10TinyVectorIiLi2EED1Ev
	movq	%rbx, %rax
	movq	%rax, %rdi
.LEHB35:
	call	_Unwind_Resume@PLT
.LEHE35:
.L154:
	movq	-8(%rbp), %rbx
	leave
	.cfi_def_cfa 7, 8
	ret
	.cfi_endproc
.LFE7076:
	.section	.gcc_except_table
.LLSDA7076:
	.byte	0xff
	.byte	0xff
	.byte	0x1
	.uleb128 .LLSDACSE7076-.LLSDACSB7076
.LLSDACSB7076:
	.uleb128 .LEHB33-.LFB7076
	.uleb128 .LEHE33-.LEHB33
	.uleb128 0
	.uleb128 0
	.uleb128 .LEHB34-.LFB7076
	.uleb128 .LEHE34-.LEHB34
	.uleb128 .L153-.LFB7076
	.uleb128 0
	.uleb128 .LEHB35-.LFB7076
	.uleb128 .LEHE35-.LEHB35
	.uleb128 0
	.uleb128 0
.LLSDACSE7076:
	.section	.text._ZN5blitz5ArrayIfLi2EE12setupStorageEi,"axG",@progbits,_ZN5blitz5ArrayIfLi2EE12setupStorageEi,comdat
	.size	_ZN5blitz5ArrayIfLi2EE12setupStorageEi, .-_ZN5blitz5ArrayIfLi2EE12setupStorageEi
	.section	.text._ZN5blitz20MemoryBlockReferenceIfE20blockRemoveReferenceEv,"axG",@progbits,_ZN5blitz20MemoryBlockReferenceIfE20blockRemoveReferenceEv,comdat
	.align 2
	.weak	_ZN5blitz20MemoryBlockReferenceIfE20blockRemoveReferenceEv
	.type	_ZN5blitz20MemoryBlockReferenceIfE20blockRemoveReferenceEv, @function
_ZN5blitz20MemoryBlockReferenceIfE20blockRemoveReferenceEv:
.LFB7077:
	.cfi_startproc
	pushq	%rbp
	.cfi_def_cfa_offset 16
	.cfi_offset 6, -16
	movq	%rsp, %rbp
	.cfi_def_cfa_register 6
	subq	$32, %rsp
	movq	%rdi, -24(%rbp)
	movq	-24(%rbp), %rax
	movq	%rax, %rdi
	call	_ZNK5blitz20MemoryBlockReferenceIfE15removeReferenceEv
	movl	%eax, -4(%rbp)
	cmpl	$0, -4(%rbp)
	jne	.L157
	movq	-24(%rbp), %rax
	movq	8(%rax), %rax
	testq	%rax, %rax
	je	.L157
	movq	(%rax), %rdx
	addq	$8, %rdx
	movq	(%rdx), %rdx
	movq	%rax, %rdi
	call	*%rdx
.L157:
	nop
	leave
	.cfi_def_cfa 7, 8
	ret
	.cfi_endproc
.LFE7077:
	.size	_ZN5blitz20MemoryBlockReferenceIfE20blockRemoveReferenceEv, .-_ZN5blitz20MemoryBlockReferenceIfE20blockRemoveReferenceEv
	.section	.text._ZN5blitz6ETBaseINS_5ArrayIfLi2EEEEC2ERKS3_,"axG",@progbits,_ZN5blitz6ETBaseINS_5ArrayIfLi2EEEEC5ERKS3_,comdat
	.align 2
	.weak	_ZN5blitz6ETBaseINS_5ArrayIfLi2EEEEC2ERKS3_
	.type	_ZN5blitz6ETBaseINS_5ArrayIfLi2EEEEC2ERKS3_, @function
_ZN5blitz6ETBaseINS_5ArrayIfLi2EEEEC2ERKS3_:
.LFB7079:
	.cfi_startproc
	pushq	%rbp
	.cfi_def_cfa_offset 16
	.cfi_offset 6, -16
	movq	%rsp, %rbp
	.cfi_def_cfa_register 6
	movq	%rdi, -8(%rbp)
	movq	%rsi, -16(%rbp)
	nop
	popq	%rbp
	.cfi_def_cfa 7, 8
	ret
	.cfi_endproc
.LFE7079:
	.size	_ZN5blitz6ETBaseINS_5ArrayIfLi2EEEEC2ERKS3_, .-_ZN5blitz6ETBaseINS_5ArrayIfLi2EEEEC2ERKS3_
	.weak	_ZN5blitz6ETBaseINS_5ArrayIfLi2EEEEC1ERKS3_
	.set	_ZN5blitz6ETBaseINS_5ArrayIfLi2EEEEC1ERKS3_,_ZN5blitz6ETBaseINS_5ArrayIfLi2EEEEC2ERKS3_
	.section	.text._ZN5blitz5ArrayIfLi2EE9referenceERKS1_,"axG",@progbits,_ZN5blitz5ArrayIfLi2EE9referenceERKS1_,comdat
	.align 2
	.weak	_ZN5blitz5ArrayIfLi2EE9referenceERKS1_
	.type	_ZN5blitz5ArrayIfLi2EE9referenceERKS1_, @function
_ZN5blitz5ArrayIfLi2EE9referenceERKS1_:
.LFB7081:
	.cfi_startproc
	pushq	%rbp
	.cfi_def_cfa_offset 16
	.cfi_offset 6, -16
	movq	%rsp, %rbp
	.cfi_def_cfa_register 6
	pushq	%rbx
	subq	$24, %rsp
	.cfi_offset 3, -24
	movq	%rdi, -24(%rbp)
	movq	%rsi, -32(%rbp)
	movq	-32(%rbp), %rax
	leaq	16(%rax), %rdx
	movq	-24(%rbp), %rax
	addq	$16, %rax
	movq	%rdx, %rsi
	movq	%rax, %rdi
	call	_ZN5blitz19GeneralArrayStorageILi2EEaSERKS1_
	movq	-24(%rbp), %rax
	movq	-32(%rbp), %rdx
	movq	40(%rdx), %rdx
	movq	%rdx, 40(%rax)
	movq	-24(%rbp), %rcx
	movq	-32(%rbp), %rax
	movq	56(%rax), %rdx
	movq	48(%rax), %rax
	movq	%rax, 48(%rcx)
	movq	%rdx, 56(%rcx)
	movq	-32(%rbp), %rax
	movq	64(%rax), %rdx
	movq	-24(%rbp), %rax
	movq	%rdx, 64(%rax)
	movq	-24(%rbp), %rbx
	movq	-32(%rbp), %rax
	movq	%rax, %rdi
	call	_ZNK5blitz5ArrayIfLi2EE7noConstEv
	movl	$0, %edx
	movq	%rax, %rsi
	movq	%rbx, %rdi
	call	_ZN5blitz20MemoryBlockReferenceIfE11changeBlockERS1_m
	nop
	movq	-8(%rbp), %rbx
	leave
	.cfi_def_cfa 7, 8
	ret
	.cfi_endproc
.LFE7081:
	.size	_ZN5blitz5ArrayIfLi2EE9referenceERKS1_, .-_ZN5blitz5ArrayIfLi2EE9referenceERKS1_
	.section	.text._ZN5blitz6ETBaseINS_10TinyVectorIbLi2EEEEC2Ev,"axG",@progbits,_ZN5blitz6ETBaseINS_10TinyVectorIbLi2EEEEC5Ev,comdat
	.align 2
	.weak	_ZN5blitz6ETBaseINS_10TinyVectorIbLi2EEEEC2Ev
	.type	_ZN5blitz6ETBaseINS_10TinyVectorIbLi2EEEEC2Ev, @function
_ZN5blitz6ETBaseINS_10TinyVectorIbLi2EEEEC2Ev:
.LFB7149:
	.cfi_startproc
	pushq	%rbp
	.cfi_def_cfa_offset 16
	.cfi_offset 6, -16
	movq	%rsp, %rbp
	.cfi_def_cfa_register 6
	movq	%rdi, -8(%rbp)
	nop
	popq	%rbp
	.cfi_def_cfa 7, 8
	ret
	.cfi_endproc
.LFE7149:
	.size	_ZN5blitz6ETBaseINS_10TinyVectorIbLi2EEEEC2Ev, .-_ZN5blitz6ETBaseINS_10TinyVectorIbLi2EEEEC2Ev
	.weak	_ZN5blitz6ETBaseINS_10TinyVectorIbLi2EEEEC1Ev
	.set	_ZN5blitz6ETBaseINS_10TinyVectorIbLi2EEEEC1Ev,_ZN5blitz6ETBaseINS_10TinyVectorIbLi2EEEEC2Ev
	.section	.text._ZNK5blitz19GeneralArrayStorageILi2EE4baseEv,"axG",@progbits,_ZNK5blitz19GeneralArrayStorageILi2EE4baseEv,comdat
	.align 2
	.weak	_ZNK5blitz19GeneralArrayStorageILi2EE4baseEv
	.type	_ZNK5blitz19GeneralArrayStorageILi2EE4baseEv, @function
_ZNK5blitz19GeneralArrayStorageILi2EE4baseEv:
.LFB7323:
	.cfi_startproc
	pushq	%rbp
	.cfi_def_cfa_offset 16
	.cfi_offset 6, -16
	movq	%rsp, %rbp
	.cfi_def_cfa_register 6
	movq	%rdi, -8(%rbp)
	movq	-8(%rbp), %rax
	addq	$16, %rax
	popq	%rbp
	.cfi_def_cfa 7, 8
	ret
	.cfi_endproc
.LFE7323:
	.size	_ZNK5blitz19GeneralArrayStorageILi2EE4baseEv, .-_ZNK5blitz19GeneralArrayStorageILi2EE4baseEv
	.section	.text._ZN5blitz3dotIilLi2EEENS_13promote_traitIT_T0_E9T_promoteERKNS_10TinyVectorIS2_XT1_EEERKNS6_IS3_XT1_EEE,"axG",@progbits,_ZN5blitz3dotIilLi2EEENS_13promote_traitIT_T0_E9T_promoteERKNS_10TinyVectorIS2_XT1_EEERKNS6_IS3_XT1_EEE,comdat
	.weak	_ZN5blitz3dotIilLi2EEENS_13promote_traitIT_T0_E9T_promoteERKNS_10TinyVectorIS2_XT1_EEERKNS6_IS3_XT1_EEE
	.type	_ZN5blitz3dotIilLi2EEENS_13promote_traitIT_T0_E9T_promoteERKNS_10TinyVectorIS2_XT1_EEERKNS6_IS3_XT1_EEE, @function
_ZN5blitz3dotIilLi2EEENS_13promote_traitIT_T0_E9T_promoteERKNS_10TinyVectorIS2_XT1_EEERKNS6_IS3_XT1_EEE:
.LFB7324:
	.cfi_startproc
	pushq	%rbp
	.cfi_def_cfa_offset 16
	.cfi_offset 6, -16
	movq	%rsp, %rbp
	.cfi_def_cfa_register 6
	subq	$16, %rsp
	movq	%rdi, -8(%rbp)
	movq	%rsi, -16(%rbp)
	movq	-16(%rbp), %rdx
	movq	-8(%rbp), %rax
	movq	%rdx, %rsi
	movq	%rax, %rdi
	call	_ZN5blitz18_bz_meta_vectorDotILi2ELi0EE1fINS_10TinyVectorIiLi2EEENS3_IlLi2EEEEENS_13promote_traitINT_9T_numtypeENT0_9T_numtypeEE9T_promoteERKS7_RKS9_
	leave
	.cfi_def_cfa 7, 8
	ret
	.cfi_endproc
.LFE7324:
	.size	_ZN5blitz3dotIilLi2EEENS_13promote_traitIT_T0_E9T_promoteERKNS_10TinyVectorIS2_XT1_EEERKNS6_IS3_XT1_EEE, .-_ZN5blitz3dotIilLi2EEENS_13promote_traitIT_T0_E9T_promoteERKNS_10TinyVectorIS2_XT1_EEERKNS6_IS3_XT1_EEE
	.section	.text._ZNSt6chrono8durationIlSt5ratioILl1ELl1000000EEEC2IlvEERKT_,"axG",@progbits,_ZNSt6chrono8durationIlSt5ratioILl1ELl1000000EEEC5IlvEERKT_,comdat
	.align 2
	.weak	_ZNSt6chrono8durationIlSt5ratioILl1ELl1000000EEEC2IlvEERKT_
	.type	_ZNSt6chrono8durationIlSt5ratioILl1ELl1000000EEEC2IlvEERKT_, @function
_ZNSt6chrono8durationIlSt5ratioILl1ELl1000000EEEC2IlvEERKT_:
.LFB7326:
	.cfi_startproc
	pushq	%rbp
	.cfi_def_cfa_offset 16
	.cfi_offset 6, -16
	movq	%rsp, %rbp
	.cfi_def_cfa_register 6
	movq	%rdi, -8(%rbp)
	movq	%rsi, -16(%rbp)
	movq	-16(%rbp), %rax
	movq	(%rax), %rdx
	movq	-8(%rbp), %rax
	movq	%rdx, (%rax)
	nop
	popq	%rbp
	.cfi_def_cfa 7, 8
	ret
	.cfi_endproc
.LFE7326:
	.size	_ZNSt6chrono8durationIlSt5ratioILl1ELl1000000EEEC2IlvEERKT_, .-_ZNSt6chrono8durationIlSt5ratioILl1ELl1000000EEEC2IlvEERKT_
	.weak	_ZNSt6chrono8durationIlSt5ratioILl1ELl1000000EEEC1IlvEERKT_
	.set	_ZNSt6chrono8durationIlSt5ratioILl1ELl1000000EEEC1IlvEERKT_,_ZNSt6chrono8durationIlSt5ratioILl1ELl1000000EEEC2IlvEERKT_
	.section	.text._ZN5blitz13_bz_ArrayExprINS_21_bz_ArrayExprConstantIiEEEC2IiEERKT_,"axG",@progbits,_ZN5blitz13_bz_ArrayExprINS_21_bz_ArrayExprConstantIiEEEC5IiEERKT_,comdat
	.align 2
	.weak	_ZN5blitz13_bz_ArrayExprINS_21_bz_ArrayExprConstantIiEEEC2IiEERKT_
	.type	_ZN5blitz13_bz_ArrayExprINS_21_bz_ArrayExprConstantIiEEEC2IiEERKT_, @function
_ZN5blitz13_bz_ArrayExprINS_21_bz_ArrayExprConstantIiEEEC2IiEERKT_:
.LFB7330:
	.cfi_startproc
	pushq	%rbp
	.cfi_def_cfa_offset 16
	.cfi_offset 6, -16
	movq	%rsp, %rbp
	.cfi_def_cfa_register 6
	subq	$16, %rsp
	movq	%rdi, -8(%rbp)
	movq	%rsi, -16(%rbp)
	movq	-8(%rbp), %rax
	movq	%rax, %rdi
	call	_ZN5blitz6ETBaseINS_13_bz_ArrayExprINS_21_bz_ArrayExprConstantIiEEEEEC2Ev
	movq	-8(%rbp), %rax
	movq	-16(%rbp), %rdx
	movl	(%rdx), %edx
	movl	%edx, %esi
	movq	%rax, %rdi
	call	_ZN5blitz21_bz_ArrayExprConstantIiEC1Ei
	nop
	leave
	.cfi_def_cfa 7, 8
	ret
	.cfi_endproc
.LFE7330:
	.size	_ZN5blitz13_bz_ArrayExprINS_21_bz_ArrayExprConstantIiEEEC2IiEERKT_, .-_ZN5blitz13_bz_ArrayExprINS_21_bz_ArrayExprConstantIiEEEC2IiEERKT_
	.weak	_ZN5blitz13_bz_ArrayExprINS_21_bz_ArrayExprConstantIiEEEC1IiEERKT_
	.set	_ZN5blitz13_bz_ArrayExprINS_21_bz_ArrayExprConstantIiEEEC1IiEERKT_,_ZN5blitz13_bz_ArrayExprINS_21_bz_ArrayExprConstantIiEEEC2IiEERKT_
	.section	.text._ZN5blitz10TinyVectorIiLi2EEaSINS_13_bz_ArrayExprINS_21_bz_ArrayExprConstantIiEEEEEERS1_RKNS_6ETBaseIT_EE,"axG",@progbits,_ZN5blitz10TinyVectorIiLi2EEaSINS_13_bz_ArrayExprINS_21_bz_ArrayExprConstantIiEEEEEERS1_RKNS_6ETBaseIT_EE,comdat
	.align 2
	.weak	_ZN5blitz10TinyVectorIiLi2EEaSINS_13_bz_ArrayExprINS_21_bz_ArrayExprConstantIiEEEEEERS1_RKNS_6ETBaseIT_EE
	.type	_ZN5blitz10TinyVectorIiLi2EEaSINS_13_bz_ArrayExprINS_21_bz_ArrayExprConstantIiEEEEEERS1_RKNS_6ETBaseIT_EE, @function
_ZN5blitz10TinyVectorIiLi2EEaSINS_13_bz_ArrayExprINS_21_bz_ArrayExprConstantIiEEEEEERS1_RKNS_6ETBaseIT_EE:
.LFB7332:
	.cfi_startproc
	pushq	%rbp
	.cfi_def_cfa_offset 16
	.cfi_offset 6, -16
	movq	%rsp, %rbp
	.cfi_def_cfa_register 6
	subq	$32, %rsp
	movq	%rdi, -24(%rbp)
	movq	%rsi, -32(%rbp)
	movq	-32(%rbp), %rax
	movq	%rax, %rdi
	call	_ZNK5blitz6ETBaseINS_13_bz_ArrayExprINS_21_bz_ArrayExprConstantIiEEEEE6unwrapEv
	movq	%rax, %rdx
	leaq	-4(%rbp), %rax
	movq	%rdx, %rsi
	movq	%rax, %rdi
	call	_ZN5blitz13_bz_ArrayExprINS_21_bz_ArrayExprConstantIiEEEC1ERKS3_
	leaq	-4(%rbp), %rdx
	movq	-24(%rbp), %rax
	movq	%rdx, %rsi
	movq	%rax, %rdi
	call	_ZN5blitz10TinyVectorIiLi2EE12_tv_evaluateINS_13_bz_ArrayExprINS_21_bz_ArrayExprConstantIiEEEENS_10_bz_updateIiiEEEEvRKT_T0_
	movq	-24(%rbp), %rax
	leave
	.cfi_def_cfa 7, 8
	ret
	.cfi_endproc
.LFE7332:
	.size	_ZN5blitz10TinyVectorIiLi2EEaSINS_13_bz_ArrayExprINS_21_bz_ArrayExprConstantIiEEEEEERS1_RKNS_6ETBaseIT_EE, .-_ZN5blitz10TinyVectorIiLi2EEaSINS_13_bz_ArrayExprINS_21_bz_ArrayExprConstantIiEEEEEERS1_RKNS_6ETBaseIT_EE
	.section	.text._ZN5blitz10TinyVectorIiLi2EE9dataFirstEv,"axG",@progbits,_ZN5blitz10TinyVectorIiLi2EE9dataFirstEv,comdat
	.align 2
	.weak	_ZN5blitz10TinyVectorIiLi2EE9dataFirstEv
	.type	_ZN5blitz10TinyVectorIiLi2EE9dataFirstEv, @function
_ZN5blitz10TinyVectorIiLi2EE9dataFirstEv:
.LFB7333:
	.cfi_startproc
	pushq	%rbp
	.cfi_def_cfa_offset 16
	.cfi_offset 6, -16
	movq	%rsp, %rbp
	.cfi_def_cfa_register 6
	movq	%rdi, -8(%rbp)
	movq	-8(%rbp), %rax
	popq	%rbp
	.cfi_def_cfa 7, 8
	ret
	.cfi_endproc
.LFE7333:
	.size	_ZN5blitz10TinyVectorIiLi2EE9dataFirstEv, .-_ZN5blitz10TinyVectorIiLi2EE9dataFirstEv
	.section	.text._ZN5blitz13_bz_ArrayExprINS_21_bz_ArrayExprConstantIbEEEC2IbEERKT_,"axG",@progbits,_ZN5blitz13_bz_ArrayExprINS_21_bz_ArrayExprConstantIbEEEC5IbEERKT_,comdat
	.align 2
	.weak	_ZN5blitz13_bz_ArrayExprINS_21_bz_ArrayExprConstantIbEEEC2IbEERKT_
	.type	_ZN5blitz13_bz_ArrayExprINS_21_bz_ArrayExprConstantIbEEEC2IbEERKT_, @function
_ZN5blitz13_bz_ArrayExprINS_21_bz_ArrayExprConstantIbEEEC2IbEERKT_:
.LFB7336:
	.cfi_startproc
	pushq	%rbp
	.cfi_def_cfa_offset 16
	.cfi_offset 6, -16
	movq	%rsp, %rbp
	.cfi_def_cfa_register 6
	subq	$16, %rsp
	movq	%rdi, -8(%rbp)
	movq	%rsi, -16(%rbp)
	movq	-8(%rbp), %rax
	movq	%rax, %rdi
	call	_ZN5blitz6ETBaseINS_13_bz_ArrayExprINS_21_bz_ArrayExprConstantIbEEEEEC2Ev
	movq	-8(%rbp), %rax
	movq	-16(%rbp), %rdx
	movzbl	(%rdx), %edx
	movzbl	%dl, %edx
	movl	%edx, %esi
	movq	%rax, %rdi
	call	_ZN5blitz21_bz_ArrayExprConstantIbEC1Eb
	nop
	leave
	.cfi_def_cfa 7, 8
	ret
	.cfi_endproc
.LFE7336:
	.size	_ZN5blitz13_bz_ArrayExprINS_21_bz_ArrayExprConstantIbEEEC2IbEERKT_, .-_ZN5blitz13_bz_ArrayExprINS_21_bz_ArrayExprConstantIbEEEC2IbEERKT_
	.weak	_ZN5blitz13_bz_ArrayExprINS_21_bz_ArrayExprConstantIbEEEC1IbEERKT_
	.set	_ZN5blitz13_bz_ArrayExprINS_21_bz_ArrayExprConstantIbEEEC1IbEERKT_,_ZN5blitz13_bz_ArrayExprINS_21_bz_ArrayExprConstantIbEEEC2IbEERKT_
	.section	.text._ZN5blitz10TinyVectorIbLi2EEaSINS_13_bz_ArrayExprINS_21_bz_ArrayExprConstantIbEEEEEERS1_RKNS_6ETBaseIT_EE,"axG",@progbits,_ZN5blitz10TinyVectorIbLi2EEaSINS_13_bz_ArrayExprINS_21_bz_ArrayExprConstantIbEEEEEERS1_RKNS_6ETBaseIT_EE,comdat
	.align 2
	.weak	_ZN5blitz10TinyVectorIbLi2EEaSINS_13_bz_ArrayExprINS_21_bz_ArrayExprConstantIbEEEEEERS1_RKNS_6ETBaseIT_EE
	.type	_ZN5blitz10TinyVectorIbLi2EEaSINS_13_bz_ArrayExprINS_21_bz_ArrayExprConstantIbEEEEEERS1_RKNS_6ETBaseIT_EE, @function
_ZN5blitz10TinyVectorIbLi2EEaSINS_13_bz_ArrayExprINS_21_bz_ArrayExprConstantIbEEEEEERS1_RKNS_6ETBaseIT_EE:
.LFB7338:
	.cfi_startproc
	pushq	%rbp
	.cfi_def_cfa_offset 16
	.cfi_offset 6, -16
	movq	%rsp, %rbp
	.cfi_def_cfa_register 6
	subq	$32, %rsp
	movq	%rdi, -24(%rbp)
	movq	%rsi, -32(%rbp)
	movq	-32(%rbp), %rax
	movq	%rax, %rdi
	call	_ZNK5blitz6ETBaseINS_13_bz_ArrayExprINS_21_bz_ArrayExprConstantIbEEEEE6unwrapEv
	movq	%rax, %rdx
	leaq	-1(%rbp), %rax
	movq	%rdx, %rsi
	movq	%rax, %rdi
	call	_ZN5blitz13_bz_ArrayExprINS_21_bz_ArrayExprConstantIbEEEC1ERKS3_
	leaq	-1(%rbp), %rdx
	movq	-24(%rbp), %rax
	movq	%rdx, %rsi
	movq	%rax, %rdi
	call	_ZN5blitz10TinyVectorIbLi2EE12_tv_evaluateINS_13_bz_ArrayExprINS_21_bz_ArrayExprConstantIbEEEENS_10_bz_updateIbbEEEEvRKT_T0_
	movq	-24(%rbp), %rax
	leave
	.cfi_def_cfa 7, 8
	ret
	.cfi_endproc
.LFE7338:
	.size	_ZN5blitz10TinyVectorIbLi2EEaSINS_13_bz_ArrayExprINS_21_bz_ArrayExprConstantIbEEEEEERS1_RKNS_6ETBaseIT_EE, .-_ZN5blitz10TinyVectorIbLi2EEaSINS_13_bz_ArrayExprINS_21_bz_ArrayExprConstantIbEEEEEERS1_RKNS_6ETBaseIT_EE
	.section	.text._ZN5blitz10TinyVectorIbLi2EE9dataFirstEv,"axG",@progbits,_ZN5blitz10TinyVectorIbLi2EE9dataFirstEv,comdat
	.align 2
	.weak	_ZN5blitz10TinyVectorIbLi2EE9dataFirstEv
	.type	_ZN5blitz10TinyVectorIbLi2EE9dataFirstEv, @function
_ZN5blitz10TinyVectorIbLi2EE9dataFirstEv:
.LFB7339:
	.cfi_startproc
	pushq	%rbp
	.cfi_def_cfa_offset 16
	.cfi_offset 6, -16
	movq	%rsp, %rbp
	.cfi_def_cfa_register 6
	movq	%rdi, -8(%rbp)
	movq	-8(%rbp), %rax
	popq	%rbp
	.cfi_def_cfa 7, 8
	ret
	.cfi_endproc
.LFE7339:
	.size	_ZN5blitz10TinyVectorIbLi2EE9dataFirstEv, .-_ZN5blitz10TinyVectorIbLi2EE9dataFirstEv
	.section	.text._ZN5blitz6ETBaseINS_10TinyVectorIlLi2EEEEC2Ev,"axG",@progbits,_ZN5blitz6ETBaseINS_10TinyVectorIlLi2EEEEC5Ev,comdat
	.align 2
	.weak	_ZN5blitz6ETBaseINS_10TinyVectorIlLi2EEEEC2Ev
	.type	_ZN5blitz6ETBaseINS_10TinyVectorIlLi2EEEEC2Ev, @function
_ZN5blitz6ETBaseINS_10TinyVectorIlLi2EEEEC2Ev:
.LFB7341:
	.cfi_startproc
	pushq	%rbp
	.cfi_def_cfa_offset 16
	.cfi_offset 6, -16
	movq	%rsp, %rbp
	.cfi_def_cfa_register 6
	movq	%rdi, -8(%rbp)
	nop
	popq	%rbp
	.cfi_def_cfa 7, 8
	ret
	.cfi_endproc
.LFE7341:
	.size	_ZN5blitz6ETBaseINS_10TinyVectorIlLi2EEEEC2Ev, .-_ZN5blitz6ETBaseINS_10TinyVectorIlLi2EEEEC2Ev
	.weak	_ZN5blitz6ETBaseINS_10TinyVectorIlLi2EEEEC1Ev
	.set	_ZN5blitz6ETBaseINS_10TinyVectorIlLi2EEEEC1Ev,_ZN5blitz6ETBaseINS_10TinyVectorIlLi2EEEEC2Ev
	.section	.text._ZNK5blitz19GeneralArrayStorageILi2EE4baseEi,"axG",@progbits,_ZNK5blitz19GeneralArrayStorageILi2EE4baseEi,comdat
	.align 2
	.weak	_ZNK5blitz19GeneralArrayStorageILi2EE4baseEi
	.type	_ZNK5blitz19GeneralArrayStorageILi2EE4baseEi, @function
_ZNK5blitz19GeneralArrayStorageILi2EE4baseEi:
.LFB7343:
	.cfi_startproc
	pushq	%rbp
	.cfi_def_cfa_offset 16
	.cfi_offset 6, -16
	movq	%rsp, %rbp
	.cfi_def_cfa_register 6
	subq	$16, %rsp
	movq	%rdi, -8(%rbp)
	movl	%esi, -12(%rbp)
	movl	-12(%rbp), %eax
	movq	-8(%rbp), %rdx
	addq	$16, %rdx
	movl	%eax, %esi
	movq	%rdx, %rdi
	call	_ZNK5blitz10TinyVectorIiLi2EEixEj
	movl	(%rax), %eax
	leave
	.cfi_def_cfa 7, 8
	ret
	.cfi_endproc
.LFE7343:
	.size	_ZNK5blitz19GeneralArrayStorageILi2EE4baseEi, .-_ZNK5blitz19GeneralArrayStorageILi2EE4baseEi
	.section	.text._ZN5blitz19GeneralArrayStorageILi2EE7setBaseEii,"axG",@progbits,_ZN5blitz19GeneralArrayStorageILi2EE7setBaseEii,comdat
	.align 2
	.weak	_ZN5blitz19GeneralArrayStorageILi2EE7setBaseEii
	.type	_ZN5blitz19GeneralArrayStorageILi2EE7setBaseEii, @function
_ZN5blitz19GeneralArrayStorageILi2EE7setBaseEii:
.LFB7344:
	.cfi_startproc
	pushq	%rbp
	.cfi_def_cfa_offset 16
	.cfi_offset 6, -16
	movq	%rsp, %rbp
	.cfi_def_cfa_register 6
	subq	$16, %rsp
	movq	%rdi, -8(%rbp)
	movl	%esi, -12(%rbp)
	movl	%edx, -16(%rbp)
	movl	-12(%rbp), %eax
	movq	-8(%rbp), %rdx
	addq	$16, %rdx
	movl	%eax, %esi
	movq	%rdx, %rdi
	call	_ZN5blitz10TinyVectorIiLi2EEixEj
	movl	-16(%rbp), %edx
	movl	%edx, (%rax)
	nop
	leave
	.cfi_def_cfa 7, 8
	ret
	.cfi_endproc
.LFE7344:
	.size	_ZN5blitz19GeneralArrayStorageILi2EE7setBaseEii, .-_ZN5blitz19GeneralArrayStorageILi2EE7setBaseEii
	.section	.text._ZN5blitz5ArrayIfLi2EE14computeStridesEv,"axG",@progbits,_ZN5blitz5ArrayIfLi2EE14computeStridesEv,comdat
	.align 2
	.weak	_ZN5blitz5ArrayIfLi2EE14computeStridesEv
	.type	_ZN5blitz5ArrayIfLi2EE14computeStridesEv, @function
_ZN5blitz5ArrayIfLi2EE14computeStridesEv:
.LFB7345:
	.cfi_startproc
	pushq	%rbp
	.cfi_def_cfa_offset 16
	.cfi_offset 6, -16
	movq	%rsp, %rbp
	.cfi_def_cfa_register 6
	pushq	%rbx
	subq	$56, %rsp
	.cfi_offset 3, -24
	movq	%rdi, -56(%rbp)
	movq	$1, -32(%rbp)
	movq	-56(%rbp), %rax
	addq	$16, %rax
	movq	%rax, %rdi
	call	_ZNK5blitz19GeneralArrayStorageILi2EE23allRanksStoredAscendingEv
	movb	%al, -33(%rbp)
	movl	$0, -20(%rbp)
.L187:
	cmpl	$1, -20(%rbp)
	jg	.L181
	movl	$1, -24(%rbp)
	movzbl	-33(%rbp), %eax
	xorl	$1, %eax
	testb	%al, %al
	je	.L182
	movl	-20(%rbp), %edx
	movq	-56(%rbp), %rax
	movl	%edx, %esi
	movq	%rax, %rdi
	call	_ZNK5blitz5ArrayIfLi2EE8orderingEi
	movl	%eax, %edx
	movq	-56(%rbp), %rax
	movl	%edx, %esi
	movq	%rax, %rdi
	call	_ZNK5blitz5ArrayIfLi2EE21isRankStoredAscendingEi
	xorl	$1, %eax
	testb	%al, %al
	je	.L182
	movl	$-1, -24(%rbp)
.L182:
	movl	-24(%rbp), %eax
	movslq	%eax, %rbx
	movl	-20(%rbp), %edx
	movq	-56(%rbp), %rax
	movl	%edx, %esi
	movq	%rax, %rdi
	call	_ZNK5blitz5ArrayIfLi2EE8orderingEi
	movl	%eax, %edx
	movq	-56(%rbp), %rax
	addq	$48, %rax
	movl	%edx, %esi
	movq	%rax, %rdi
	call	_ZN5blitz10TinyVectorIlLi2EEixEj
	imulq	-32(%rbp), %rbx
	movq	%rbx, %rdx
	movq	%rdx, (%rax)
	movq	-56(%rbp), %rax
	addq	$16, %rax
	movq	%rax, %rdi
	call	_ZNK5blitz19GeneralArrayStorageILi2EE7paddingEv
	movl	(%rax), %eax
	cmpl	$1, %eax
	jne	.L183
	cmpl	$0, -20(%rbp)
	jne	.L183
	movl	$1, %eax
	jmp	.L184
.L183:
	movl	$0, %eax
.L184:
	testb	%al, %al
	je	.L185
	movq	-56(%rbp), %rax
	movl	$0, %esi
	movq	%rax, %rdi
	call	_ZNK5blitz5ArrayIfLi2EE8orderingEi
	movl	%eax, %edx
	movq	-56(%rbp), %rax
	addq	$40, %rax
	movl	%edx, %esi
	movq	%rax, %rdi
	call	_ZN5blitz10TinyVectorIiLi2EEixEj
	movl	(%rax), %eax
	cltq
	movq	%rax, %rdi
	call	_ZN5blitz9simdTypesIfE12paddedLengthEm
	movq	-32(%rbp), %rdx
	imulq	%rdx, %rax
	movq	%rax, -32(%rbp)
	jmp	.L186
.L185:
	movl	-20(%rbp), %edx
	movq	-56(%rbp), %rax
	movl	%edx, %esi
	movq	%rax, %rdi
	call	_ZNK5blitz5ArrayIfLi2EE8orderingEi
	movl	%eax, %edx
	movq	-56(%rbp), %rax
	addq	$40, %rax
	movl	%edx, %esi
	movq	%rax, %rdi
	call	_ZN5blitz10TinyVectorIiLi2EEixEj
	movl	(%rax), %eax
	cltq
	movq	-32(%rbp), %rdx
	imulq	%rdx, %rax
	movq	%rax, -32(%rbp)
.L186:
	addl	$1, -20(%rbp)
	jmp	.L187
.L181:
	movq	-56(%rbp), %rax
	movq	%rax, %rdi
	call	_ZN5blitz5ArrayIfLi2EE19calculateZeroOffsetEv
	nop
	movq	-8(%rbp), %rbx
	leave
	.cfi_def_cfa 7, 8
	ret
	.cfi_endproc
.LFE7345:
	.size	_ZN5blitz5ArrayIfLi2EE14computeStridesEv, .-_ZN5blitz5ArrayIfLi2EE14computeStridesEv
	.section	.text._ZNK5blitz5ArrayIfLi2EE6lengthEv,"axG",@progbits,_ZNK5blitz5ArrayIfLi2EE6lengthEv,comdat
	.align 2
	.weak	_ZNK5blitz5ArrayIfLi2EE6lengthEv
	.type	_ZNK5blitz5ArrayIfLi2EE6lengthEv, @function
_ZNK5blitz5ArrayIfLi2EE6lengthEv:
.LFB7346:
	.cfi_startproc
	pushq	%rbp
	.cfi_def_cfa_offset 16
	.cfi_offset 6, -16
	movq	%rsp, %rbp
	.cfi_def_cfa_register 6
	movq	%rdi, -8(%rbp)
	movq	-8(%rbp), %rax
	addq	$40, %rax
	popq	%rbp
	.cfi_def_cfa 7, 8
	ret
	.cfi_endproc
.LFE7346:
	.size	_ZNK5blitz5ArrayIfLi2EE6lengthEv, .-_ZNK5blitz5ArrayIfLi2EE6lengthEv
	.section	.text._ZNK5blitz19GeneralArrayStorageILi2EE7paddingEv,"axG",@progbits,_ZNK5blitz19GeneralArrayStorageILi2EE7paddingEv,comdat
	.align 2
	.weak	_ZNK5blitz19GeneralArrayStorageILi2EE7paddingEv
	.type	_ZNK5blitz19GeneralArrayStorageILi2EE7paddingEv, @function
_ZNK5blitz19GeneralArrayStorageILi2EE7paddingEv:
.LFB7347:
	.cfi_startproc
	pushq	%rbp
	.cfi_def_cfa_offset 16
	.cfi_offset 6, -16
	movq	%rsp, %rbp
	.cfi_def_cfa_register 6
	movq	%rdi, -8(%rbp)
	movq	-8(%rbp), %rax
	popq	%rbp
	.cfi_def_cfa 7, 8
	ret
	.cfi_endproc
.LFE7347:
	.size	_ZNK5blitz19GeneralArrayStorageILi2EE7paddingEv, .-_ZNK5blitz19GeneralArrayStorageILi2EE7paddingEv
	.section	.text._ZNK5blitz5ArrayIfLi2EE8orderingEi,"axG",@progbits,_ZNK5blitz5ArrayIfLi2EE8orderingEi,comdat
	.align 2
	.weak	_ZNK5blitz5ArrayIfLi2EE8orderingEi
	.type	_ZNK5blitz5ArrayIfLi2EE8orderingEi, @function
_ZNK5blitz5ArrayIfLi2EE8orderingEi:
.LFB7348:
	.cfi_startproc
	pushq	%rbp
	.cfi_def_cfa_offset 16
	.cfi_offset 6, -16
	movq	%rsp, %rbp
	.cfi_def_cfa_register 6
	subq	$16, %rsp
	movq	%rdi, -8(%rbp)
	movl	%esi, -12(%rbp)
	movq	-8(%rbp), %rax
	leaq	16(%rax), %rdx
	movl	-12(%rbp), %eax
	movl	%eax, %esi
	movq	%rdx, %rdi
	call	_ZNK5blitz19GeneralArrayStorageILi2EE8orderingEi
	leave
	.cfi_def_cfa 7, 8
	ret
	.cfi_endproc
.LFE7348:
	.size	_ZNK5blitz5ArrayIfLi2EE8orderingEi, .-_ZNK5blitz5ArrayIfLi2EE8orderingEi
	.section	.text._ZN5blitz9simdTypesIfE12paddedLengthEm,"axG",@progbits,_ZN5blitz9simdTypesIfE12paddedLengthEm,comdat
	.weak	_ZN5blitz9simdTypesIfE12paddedLengthEm
	.type	_ZN5blitz9simdTypesIfE12paddedLengthEm, @function
_ZN5blitz9simdTypesIfE12paddedLengthEm:
.LFB7349:
	.cfi_startproc
	pushq	%rbp
	.cfi_def_cfa_offset 16
	.cfi_offset 6, -16
	movq	%rsp, %rbp
	.cfi_def_cfa_register 6
	movq	%rdi, -8(%rbp)
	movq	-8(%rbp), %rax
	popq	%rbp
	.cfi_def_cfa 7, 8
	ret
	.cfi_endproc
.LFE7349:
	.size	_ZN5blitz9simdTypesIfE12paddedLengthEm, .-_ZN5blitz9simdTypesIfE12paddedLengthEm
	.section	.text._ZN5blitz14_bz_returntypeImE7productIiLi2EEEmRKNS_10TinyVectorIT_XT0_EEE,"axG",@progbits,_ZN5blitz14_bz_returntypeImE7productIiLi2EEEmRKNS_10TinyVectorIT_XT0_EEE,comdat
	.weak	_ZN5blitz14_bz_returntypeImE7productIiLi2EEEmRKNS_10TinyVectorIT_XT0_EEE
	.type	_ZN5blitz14_bz_returntypeImE7productIiLi2EEEmRKNS_10TinyVectorIT_XT0_EEE, @function
_ZN5blitz14_bz_returntypeImE7productIiLi2EEEmRKNS_10TinyVectorIT_XT0_EEE:
.LFB7350:
	.cfi_startproc
	pushq	%rbp
	.cfi_def_cfa_offset 16
	.cfi_offset 6, -16
	movq	%rsp, %rbp
	.cfi_def_cfa_register 6
	subq	$16, %rsp
	movq	%rdi, -8(%rbp)
	movq	-8(%rbp), %rax
	movq	%rax, %rdi
	call	_ZN5blitz25_bz_meta_vectorProductRetILi2ELi0EmE1fINS_10TinyVectorIiLi2EEEEEmRKT_
	leave
	.cfi_def_cfa 7, 8
	ret
	.cfi_endproc
.LFE7350:
	.size	_ZN5blitz14_bz_returntypeImE7productIiLi2EEEmRKNS_10TinyVectorIT_XT0_EEE, .-_ZN5blitz14_bz_returntypeImE7productIiLi2EEEmRKNS_10TinyVectorIT_XT0_EEE
	.section	.text._ZN5blitz20MemoryBlockReferenceIfE17changeToNullBlockEv,"axG",@progbits,_ZN5blitz20MemoryBlockReferenceIfE17changeToNullBlockEv,comdat
	.align 2
	.weak	_ZN5blitz20MemoryBlockReferenceIfE17changeToNullBlockEv
	.type	_ZN5blitz20MemoryBlockReferenceIfE17changeToNullBlockEv, @function
_ZN5blitz20MemoryBlockReferenceIfE17changeToNullBlockEv:
.LFB7351:
	.cfi_startproc
	pushq	%rbp
	.cfi_def_cfa_offset 16
	.cfi_offset 6, -16
	movq	%rsp, %rbp
	.cfi_def_cfa_register 6
	subq	$16, %rsp
	movq	%rdi, -8(%rbp)
	movq	-8(%rbp), %rax
	movq	%rax, %rdi
	call	_ZN5blitz20MemoryBlockReferenceIfE20blockRemoveReferenceEv
	movq	-8(%rbp), %rax
	movq	$0, 8(%rax)
	movq	-8(%rbp), %rax
	movq	$0, (%rax)
	nop
	leave
	.cfi_def_cfa 7, 8
	ret
	.cfi_endproc
.LFE7351:
	.size	_ZN5blitz20MemoryBlockReferenceIfE17changeToNullBlockEv, .-_ZN5blitz20MemoryBlockReferenceIfE17changeToNullBlockEv
	.section	.text._ZN5blitz20MemoryBlockReferenceIfE8newBlockEm,"axG",@progbits,_ZN5blitz20MemoryBlockReferenceIfE8newBlockEm,comdat
	.align 2
	.weak	_ZN5blitz20MemoryBlockReferenceIfE8newBlockEm
	.type	_ZN5blitz20MemoryBlockReferenceIfE8newBlockEm, @function
_ZN5blitz20MemoryBlockReferenceIfE8newBlockEm:
.LFB7352:
	.cfi_startproc
	.cfi_personality 0x9b,DW.ref.__gxx_personality_v0
	.cfi_lsda 0x1b,.LLSDA7352
	pushq	%rbp
	.cfi_def_cfa_offset 16
	.cfi_offset 6, -16
	movq	%rsp, %rbp
	.cfi_def_cfa_register 6
	pushq	%r12
	pushq	%rbx
	subq	$16, %rsp
	.cfi_offset 12, -24
	.cfi_offset 3, -32
	movq	%rdi, -24(%rbp)
	movq	%rsi, -32(%rbp)
	movq	-24(%rbp), %rax
	movq	%rax, %rdi
.LEHB36:
	call	_ZN5blitz20MemoryBlockReferenceIfE20blockRemoveReferenceEv
	movl	$48, %edi
	call	_Znwm@PLT
.LEHE36:
	movq	%rax, %rbx
	movq	-32(%rbp), %rax
	movq	%rax, %rsi
	movq	%rbx, %rdi
.LEHB37:
	call	_ZN5blitz11MemoryBlockIfEC1Em
.LEHE37:
	movq	-24(%rbp), %rax
	movq	%rbx, 8(%rax)
	movq	-24(%rbp), %rax
	movq	8(%rax), %rax
	movq	%rax, %rdi
	call	_ZN5blitz11MemoryBlockIfE4dataEv
	movq	-24(%rbp), %rdx
	movq	%rax, (%rdx)
	jmp	.L202
.L201:
	movq	%rax, %r12
	movl	$48, %esi
	movq	%rbx, %rdi
	call	_ZdlPvm@PLT
	movq	%r12, %rax
	movq	%rax, %rdi
.LEHB38:
	call	_Unwind_Resume@PLT
.LEHE38:
.L202:
	addq	$16, %rsp
	popq	%rbx
	popq	%r12
	popq	%rbp
	.cfi_def_cfa 7, 8
	ret
	.cfi_endproc
.LFE7352:
	.section	.gcc_except_table
.LLSDA7352:
	.byte	0xff
	.byte	0xff
	.byte	0x1
	.uleb128 .LLSDACSE7352-.LLSDACSB7352
.LLSDACSB7352:
	.uleb128 .LEHB36-.LFB7352
	.uleb128 .LEHE36-.LEHB36
	.uleb128 0
	.uleb128 0
	.uleb128 .LEHB37-.LFB7352
	.uleb128 .LEHE37-.LEHB37
	.uleb128 .L201-.LFB7352
	.uleb128 0
	.uleb128 .LEHB38-.LFB7352
	.uleb128 .LEHE38-.LEHB38
	.uleb128 0
	.uleb128 0
.LLSDACSE7352:
	.section	.text._ZN5blitz20MemoryBlockReferenceIfE8newBlockEm,"axG",@progbits,_ZN5blitz20MemoryBlockReferenceIfE8newBlockEm,comdat
	.size	_ZN5blitz20MemoryBlockReferenceIfE8newBlockEm, .-_ZN5blitz20MemoryBlockReferenceIfE8newBlockEm
	.section	.text._ZNK5blitz20MemoryBlockReferenceIfE15removeReferenceEv,"axG",@progbits,_ZNK5blitz20MemoryBlockReferenceIfE15removeReferenceEv,comdat
	.align 2
	.weak	_ZNK5blitz20MemoryBlockReferenceIfE15removeReferenceEv
	.type	_ZNK5blitz20MemoryBlockReferenceIfE15removeReferenceEv, @function
_ZNK5blitz20MemoryBlockReferenceIfE15removeReferenceEv:
.LFB7353:
	.cfi_startproc
	pushq	%rbp
	.cfi_def_cfa_offset 16
	.cfi_offset 6, -16
	movq	%rsp, %rbp
	.cfi_def_cfa_register 6
	subq	$16, %rsp
	movq	%rdi, -8(%rbp)
	movq	-8(%rbp), %rax
	movq	8(%rax), %rax
	testq	%rax, %rax
	je	.L204
	movq	-8(%rbp), %rax
	movq	8(%rax), %rax
	movq	%rax, %rdi
	call	_ZN5blitz11MemoryBlockIfE15removeReferenceEv
	jmp	.L205
.L204:
	movl	$-1, %eax
.L205:
	leave
	.cfi_def_cfa 7, 8
	ret
	.cfi_endproc
.LFE7353:
	.size	_ZNK5blitz20MemoryBlockReferenceIfE15removeReferenceEv, .-_ZNK5blitz20MemoryBlockReferenceIfE15removeReferenceEv
	.section	.text._ZN5blitz11MemoryBlockIfED2Ev,"axG",@progbits,_ZN5blitz11MemoryBlockIfED5Ev,comdat
	.align 2
	.weak	_ZN5blitz11MemoryBlockIfED2Ev
	.type	_ZN5blitz11MemoryBlockIfED2Ev, @function
_ZN5blitz11MemoryBlockIfED2Ev:
.LFB7355:
	.cfi_startproc
	pushq	%rbp
	.cfi_def_cfa_offset 16
	.cfi_offset 6, -16
	movq	%rsp, %rbp
	.cfi_def_cfa_register 6
	subq	$16, %rsp
	movq	%rdi, -8(%rbp)
	leaq	16+_ZTVN5blitz11MemoryBlockIfEE(%rip), %rdx
	movq	-8(%rbp), %rax
	movq	%rdx, (%rax)
	movq	-8(%rbp), %rax
	movq	24(%rax), %rax
	testq	%rax, %rax
	je	.L208
	movq	-8(%rbp), %rax
	movq	%rax, %rdi
	call	_ZN5blitz11MemoryBlockIfE10deallocateEv
.L208:
	nop
	leave
	.cfi_def_cfa 7, 8
	ret
	.cfi_endproc
.LFE7355:
	.size	_ZN5blitz11MemoryBlockIfED2Ev, .-_ZN5blitz11MemoryBlockIfED2Ev
	.weak	_ZN5blitz11MemoryBlockIfED1Ev
	.set	_ZN5blitz11MemoryBlockIfED1Ev,_ZN5blitz11MemoryBlockIfED2Ev
	.section	.text._ZN5blitz11MemoryBlockIfED0Ev,"axG",@progbits,_ZN5blitz11MemoryBlockIfED5Ev,comdat
	.align 2
	.weak	_ZN5blitz11MemoryBlockIfED0Ev
	.type	_ZN5blitz11MemoryBlockIfED0Ev, @function
_ZN5blitz11MemoryBlockIfED0Ev:
.LFB7357:
	.cfi_startproc
	pushq	%rbp
	.cfi_def_cfa_offset 16
	.cfi_offset 6, -16
	movq	%rsp, %rbp
	.cfi_def_cfa_register 6
	subq	$16, %rsp
	movq	%rdi, -8(%rbp)
	movq	-8(%rbp), %rax
	movq	%rax, %rdi
	call	_ZN5blitz11MemoryBlockIfED1Ev
	movq	-8(%rbp), %rax
	movl	$48, %esi
	movq	%rax, %rdi
	call	_ZdlPvm@PLT
	leave
	.cfi_def_cfa 7, 8
	ret
	.cfi_endproc
.LFE7357:
	.size	_ZN5blitz11MemoryBlockIfED0Ev, .-_ZN5blitz11MemoryBlockIfED0Ev
	.section	.text._ZN5blitz19GeneralArrayStorageILi2EEaSERKS1_,"axG",@progbits,_ZN5blitz19GeneralArrayStorageILi2EEaSERKS1_,comdat
	.align 2
	.weak	_ZN5blitz19GeneralArrayStorageILi2EEaSERKS1_
	.type	_ZN5blitz19GeneralArrayStorageILi2EEaSERKS1_, @function
_ZN5blitz19GeneralArrayStorageILi2EEaSERKS1_:
.LFB7358:
	.cfi_startproc
	pushq	%rbp
	.cfi_def_cfa_offset 16
	.cfi_offset 6, -16
	movq	%rsp, %rbp
	.cfi_def_cfa_register 6
	subq	$16, %rsp
	movq	%rdi, -8(%rbp)
	movq	%rsi, -16(%rbp)
	movq	-16(%rbp), %rax
	movq	%rax, %rdi
	call	_ZNK5blitz19GeneralArrayStorageILi2EE8orderingEv
	movq	-8(%rbp), %rdx
	movq	(%rax), %rax
	movq	%rax, 8(%rdx)
	movq	-16(%rbp), %rax
	movq	%rax, %rdi
	call	_ZNK5blitz19GeneralArrayStorageILi2EE13ascendingFlagEv
	movq	-8(%rbp), %rdx
	movzwl	(%rax), %eax
	movw	%ax, 4(%rdx)
	movq	-16(%rbp), %rax
	movq	%rax, %rdi
	call	_ZNK5blitz19GeneralArrayStorageILi2EE4baseEv
	movq	-8(%rbp), %rdx
	movq	(%rax), %rax
	movq	%rax, 16(%rdx)
	movq	-16(%rbp), %rax
	movl	(%rax), %edx
	movq	-8(%rbp), %rax
	movl	%edx, (%rax)
	movq	-8(%rbp), %rax
	leave
	.cfi_def_cfa 7, 8
	ret
	.cfi_endproc
.LFE7358:
	.size	_ZN5blitz19GeneralArrayStorageILi2EEaSERKS1_, .-_ZN5blitz19GeneralArrayStorageILi2EEaSERKS1_
	.section	.text._ZN5blitz20MemoryBlockReferenceIfE11changeBlockERS1_m,"axG",@progbits,_ZN5blitz20MemoryBlockReferenceIfE11changeBlockERS1_m,comdat
	.align 2
	.weak	_ZN5blitz20MemoryBlockReferenceIfE11changeBlockERS1_m
	.type	_ZN5blitz20MemoryBlockReferenceIfE11changeBlockERS1_m, @function
_ZN5blitz20MemoryBlockReferenceIfE11changeBlockERS1_m:
.LFB7359:
	.cfi_startproc
	pushq	%rbp
	.cfi_def_cfa_offset 16
	.cfi_offset 6, -16
	movq	%rsp, %rbp
	.cfi_def_cfa_register 6
	subq	$32, %rsp
	movq	%rdi, -8(%rbp)
	movq	%rsi, -16(%rbp)
	movq	%rdx, -24(%rbp)
	movq	-8(%rbp), %rax
	movq	%rax, %rdi
	call	_ZN5blitz20MemoryBlockReferenceIfE20blockRemoveReferenceEv
	movq	-16(%rbp), %rax
	movq	8(%rax), %rdx
	movq	-8(%rbp), %rax
	movq	%rdx, 8(%rax)
	movq	-8(%rbp), %rax
	movq	%rax, %rdi
	call	_ZNK5blitz20MemoryBlockReferenceIfE12addReferenceEv
	movq	-16(%rbp), %rax
	movq	(%rax), %rdx
	movq	-24(%rbp), %rax
	salq	$2, %rax
	addq	%rax, %rdx
	movq	-8(%rbp), %rax
	movq	%rdx, (%rax)
	nop
	leave
	.cfi_def_cfa 7, 8
	ret
	.cfi_endproc
.LFE7359:
	.size	_ZN5blitz20MemoryBlockReferenceIfE11changeBlockERS1_m, .-_ZN5blitz20MemoryBlockReferenceIfE11changeBlockERS1_m
	.section	.text._ZNK5blitz5ArrayIfLi2EE7noConstEv,"axG",@progbits,_ZNK5blitz5ArrayIfLi2EE7noConstEv,comdat
	.align 2
	.weak	_ZNK5blitz5ArrayIfLi2EE7noConstEv
	.type	_ZNK5blitz5ArrayIfLi2EE7noConstEv, @function
_ZNK5blitz5ArrayIfLi2EE7noConstEv:
.LFB7360:
	.cfi_startproc
	pushq	%rbp
	.cfi_def_cfa_offset 16
	.cfi_offset 6, -16
	movq	%rsp, %rbp
	.cfi_def_cfa_register 6
	movq	%rdi, -8(%rbp)
	movq	-8(%rbp), %rax
	popq	%rbp
	.cfi_def_cfa 7, 8
	ret
	.cfi_endproc
.LFE7360:
	.size	_ZNK5blitz5ArrayIfLi2EE7noConstEv, .-_ZNK5blitz5ArrayIfLi2EE7noConstEv
	.section	.text._ZN5blitz18_bz_meta_vectorDotILi2ELi0EE1fINS_10TinyVectorIiLi2EEENS3_IlLi2EEEEENS_13promote_traitINT_9T_numtypeENT0_9T_numtypeEE9T_promoteERKS7_RKS9_,"axG",@progbits,_ZN5blitz18_bz_meta_vectorDotILi2ELi0EE1fINS_10TinyVectorIiLi2EEENS3_IlLi2EEEEENS_13promote_traitINT_9T_numtypeENT0_9T_numtypeEE9T_promoteERKS7_RKS9_,comdat
	.weak	_ZN5blitz18_bz_meta_vectorDotILi2ELi0EE1fINS_10TinyVectorIiLi2EEENS3_IlLi2EEEEENS_13promote_traitINT_9T_numtypeENT0_9T_numtypeEE9T_promoteERKS7_RKS9_
	.type	_ZN5blitz18_bz_meta_vectorDotILi2ELi0EE1fINS_10TinyVectorIiLi2EEENS3_IlLi2EEEEENS_13promote_traitINT_9T_numtypeENT0_9T_numtypeEE9T_promoteERKS7_RKS9_, @function
_ZN5blitz18_bz_meta_vectorDotILi2ELi0EE1fINS_10TinyVectorIiLi2EEENS3_IlLi2EEEEENS_13promote_traitINT_9T_numtypeENT0_9T_numtypeEE9T_promoteERKS7_RKS9_:
.LFB7461:
	.cfi_startproc
	pushq	%rbp
	.cfi_def_cfa_offset 16
	.cfi_offset 6, -16
	movq	%rsp, %rbp
	.cfi_def_cfa_register 6
	pushq	%rbx
	subq	$24, %rsp
	.cfi_offset 3, -24
	movq	%rdi, -24(%rbp)
	movq	%rsi, -32(%rbp)
	movq	-24(%rbp), %rax
	movl	$0, %esi
	movq	%rax, %rdi
	call	_ZNK5blitz10TinyVectorIiLi2EEixEj
	movl	(%rax), %eax
	movslq	%eax, %rbx
	movq	-32(%rbp), %rax
	movl	$0, %esi
	movq	%rax, %rdi
	call	_ZNK5blitz10TinyVectorIlLi2EEixEj
	movq	(%rax), %rax
	imulq	%rax, %rbx
	movq	-32(%rbp), %rdx
	movq	-24(%rbp), %rax
	movq	%rdx, %rsi
	movq	%rax, %rdi
	call	_ZN5blitz18_bz_meta_vectorDotILi2ELi1EE1fINS_10TinyVectorIiLi2EEENS3_IlLi2EEEEENS_13promote_traitINT_9T_numtypeENT0_9T_numtypeEE9T_promoteERKS7_RKS9_
	addq	%rbx, %rax
	movq	-8(%rbp), %rbx
	leave
	.cfi_def_cfa 7, 8
	ret
	.cfi_endproc
.LFE7461:
	.size	_ZN5blitz18_bz_meta_vectorDotILi2ELi0EE1fINS_10TinyVectorIiLi2EEENS3_IlLi2EEEEENS_13promote_traitINT_9T_numtypeENT0_9T_numtypeEE9T_promoteERKS7_RKS9_, .-_ZN5blitz18_bz_meta_vectorDotILi2ELi0EE1fINS_10TinyVectorIiLi2EEENS3_IlLi2EEEEENS_13promote_traitINT_9T_numtypeENT0_9T_numtypeEE9T_promoteERKS7_RKS9_
	.section	.text._ZN5blitz6ETBaseINS_13_bz_ArrayExprINS_21_bz_ArrayExprConstantIiEEEEEC2Ev,"axG",@progbits,_ZN5blitz6ETBaseINS_13_bz_ArrayExprINS_21_bz_ArrayExprConstantIiEEEEEC5Ev,comdat
	.align 2
	.weak	_ZN5blitz6ETBaseINS_13_bz_ArrayExprINS_21_bz_ArrayExprConstantIiEEEEEC2Ev
	.type	_ZN5blitz6ETBaseINS_13_bz_ArrayExprINS_21_bz_ArrayExprConstantIiEEEEEC2Ev, @function
_ZN5blitz6ETBaseINS_13_bz_ArrayExprINS_21_bz_ArrayExprConstantIiEEEEEC2Ev:
.LFB7463:
	.cfi_startproc
	pushq	%rbp
	.cfi_def_cfa_offset 16
	.cfi_offset 6, -16
	movq	%rsp, %rbp
	.cfi_def_cfa_register 6
	movq	%rdi, -8(%rbp)
	nop
	popq	%rbp
	.cfi_def_cfa 7, 8
	ret
	.cfi_endproc
.LFE7463:
	.size	_ZN5blitz6ETBaseINS_13_bz_ArrayExprINS_21_bz_ArrayExprConstantIiEEEEEC2Ev, .-_ZN5blitz6ETBaseINS_13_bz_ArrayExprINS_21_bz_ArrayExprConstantIiEEEEEC2Ev
	.weak	_ZN5blitz6ETBaseINS_13_bz_ArrayExprINS_21_bz_ArrayExprConstantIiEEEEEC1Ev
	.set	_ZN5blitz6ETBaseINS_13_bz_ArrayExprINS_21_bz_ArrayExprConstantIiEEEEEC1Ev,_ZN5blitz6ETBaseINS_13_bz_ArrayExprINS_21_bz_ArrayExprConstantIiEEEEEC2Ev
	.section	.text._ZN5blitz21_bz_ArrayExprConstantIiEC2Ei,"axG",@progbits,_ZN5blitz21_bz_ArrayExprConstantIiEC5Ei,comdat
	.align 2
	.weak	_ZN5blitz21_bz_ArrayExprConstantIiEC2Ei
	.type	_ZN5blitz21_bz_ArrayExprConstantIiEC2Ei, @function
_ZN5blitz21_bz_ArrayExprConstantIiEC2Ei:
.LFB7466:
	.cfi_startproc
	pushq	%rbp
	.cfi_def_cfa_offset 16
	.cfi_offset 6, -16
	movq	%rsp, %rbp
	.cfi_def_cfa_register 6
	movq	%rdi, -8(%rbp)
	movl	%esi, -12(%rbp)
	movq	-8(%rbp), %rax
	movl	-12(%rbp), %edx
	movl	%edx, (%rax)
	nop
	popq	%rbp
	.cfi_def_cfa 7, 8
	ret
	.cfi_endproc
.LFE7466:
	.size	_ZN5blitz21_bz_ArrayExprConstantIiEC2Ei, .-_ZN5blitz21_bz_ArrayExprConstantIiEC2Ei
	.weak	_ZN5blitz21_bz_ArrayExprConstantIiEC1Ei
	.set	_ZN5blitz21_bz_ArrayExprConstantIiEC1Ei,_ZN5blitz21_bz_ArrayExprConstantIiEC2Ei
	.section	.text._ZNK5blitz6ETBaseINS_13_bz_ArrayExprINS_21_bz_ArrayExprConstantIiEEEEE6unwrapEv,"axG",@progbits,_ZNK5blitz6ETBaseINS_13_bz_ArrayExprINS_21_bz_ArrayExprConstantIiEEEEE6unwrapEv,comdat
	.align 2
	.weak	_ZNK5blitz6ETBaseINS_13_bz_ArrayExprINS_21_bz_ArrayExprConstantIiEEEEE6unwrapEv
	.type	_ZNK5blitz6ETBaseINS_13_bz_ArrayExprINS_21_bz_ArrayExprConstantIiEEEEE6unwrapEv, @function
_ZNK5blitz6ETBaseINS_13_bz_ArrayExprINS_21_bz_ArrayExprConstantIiEEEEE6unwrapEv:
.LFB7468:
	.cfi_startproc
	pushq	%rbp
	.cfi_def_cfa_offset 16
	.cfi_offset 6, -16
	movq	%rsp, %rbp
	.cfi_def_cfa_register 6
	movq	%rdi, -8(%rbp)
	movq	-8(%rbp), %rax
	popq	%rbp
	.cfi_def_cfa 7, 8
	ret
	.cfi_endproc
.LFE7468:
	.size	_ZNK5blitz6ETBaseINS_13_bz_ArrayExprINS_21_bz_ArrayExprConstantIiEEEEE6unwrapEv, .-_ZNK5blitz6ETBaseINS_13_bz_ArrayExprINS_21_bz_ArrayExprConstantIiEEEEE6unwrapEv
	.section	.text._ZN5blitz13_bz_ArrayExprINS_21_bz_ArrayExprConstantIiEEEC2ERKS3_,"axG",@progbits,_ZN5blitz13_bz_ArrayExprINS_21_bz_ArrayExprConstantIiEEEC5ERKS3_,comdat
	.align 2
	.weak	_ZN5blitz13_bz_ArrayExprINS_21_bz_ArrayExprConstantIiEEEC2ERKS3_
	.type	_ZN5blitz13_bz_ArrayExprINS_21_bz_ArrayExprConstantIiEEEC2ERKS3_, @function
_ZN5blitz13_bz_ArrayExprINS_21_bz_ArrayExprConstantIiEEEC2ERKS3_:
.LFB7470:
	.cfi_startproc
	pushq	%rbp
	.cfi_def_cfa_offset 16
	.cfi_offset 6, -16
	movq	%rsp, %rbp
	.cfi_def_cfa_register 6
	subq	$16, %rsp
	movq	%rdi, -8(%rbp)
	movq	%rsi, -16(%rbp)
	movq	-16(%rbp), %rdx
	movq	-8(%rbp), %rax
	movq	%rdx, %rsi
	movq	%rax, %rdi
	call	_ZN5blitz6ETBaseINS_13_bz_ArrayExprINS_21_bz_ArrayExprConstantIiEEEEEC2ERKS5_
	movq	-8(%rbp), %rax
	movq	-16(%rbp), %rdx
	movq	%rdx, %rsi
	movq	%rax, %rdi
	call	_ZN5blitz21_bz_ArrayExprConstantIiEC1ERKS1_
	nop
	leave
	.cfi_def_cfa 7, 8
	ret
	.cfi_endproc
.LFE7470:
	.size	_ZN5blitz13_bz_ArrayExprINS_21_bz_ArrayExprConstantIiEEEC2ERKS3_, .-_ZN5blitz13_bz_ArrayExprINS_21_bz_ArrayExprConstantIiEEEC2ERKS3_
	.weak	_ZN5blitz13_bz_ArrayExprINS_21_bz_ArrayExprConstantIiEEEC1ERKS3_
	.set	_ZN5blitz13_bz_ArrayExprINS_21_bz_ArrayExprConstantIiEEEC1ERKS3_,_ZN5blitz13_bz_ArrayExprINS_21_bz_ArrayExprConstantIiEEEC2ERKS3_
	.section	.text._ZN5blitz10TinyVectorIiLi2EE12_tv_evaluateINS_13_bz_ArrayExprINS_21_bz_ArrayExprConstantIiEEEENS_10_bz_updateIiiEEEEvRKT_T0_,"axG",@progbits,_ZN5blitz10TinyVectorIiLi2EE12_tv_evaluateINS_13_bz_ArrayExprINS_21_bz_ArrayExprConstantIiEEEENS_10_bz_updateIiiEEEEvRKT_T0_,comdat
	.align 2
	.weak	_ZN5blitz10TinyVectorIiLi2EE12_tv_evaluateINS_13_bz_ArrayExprINS_21_bz_ArrayExprConstantIiEEEENS_10_bz_updateIiiEEEEvRKT_T0_
	.type	_ZN5blitz10TinyVectorIiLi2EE12_tv_evaluateINS_13_bz_ArrayExprINS_21_bz_ArrayExprConstantIiEEEENS_10_bz_updateIiiEEEEvRKT_T0_, @function
_ZN5blitz10TinyVectorIiLi2EE12_tv_evaluateINS_13_bz_ArrayExprINS_21_bz_ArrayExprConstantIiEEEENS_10_bz_updateIiiEEEEvRKT_T0_:
.LFB7472:
	.cfi_startproc
	pushq	%rbp
	.cfi_def_cfa_offset 16
	.cfi_offset 6, -16
	movq	%rsp, %rbp
	.cfi_def_cfa_register 6
	subq	$32, %rsp
	movq	%rdi, -24(%rbp)
	movq	%rsi, -32(%rbp)
	movb	$0, -1(%rbp)
	movq	-32(%rbp), %rdx
	movq	-24(%rbp), %rax
	movq	%rdx, %rsi
	movq	%rax, %rdi
	call	_ZN5blitz13_tv_evaluatorILb0ELi2EE17select_evaluationIiNS_13_bz_ArrayExprINS_21_bz_ArrayExprConstantIiEEEENS_10_bz_updateIiiEEEEvRNS_10TinyVectorIT_Li2EEERKT0_T1_
	nop
	leave
	.cfi_def_cfa 7, 8
	ret
	.cfi_endproc
.LFE7472:
	.size	_ZN5blitz10TinyVectorIiLi2EE12_tv_evaluateINS_13_bz_ArrayExprINS_21_bz_ArrayExprConstantIiEEEENS_10_bz_updateIiiEEEEvRKT_T0_, .-_ZN5blitz10TinyVectorIiLi2EE12_tv_evaluateINS_13_bz_ArrayExprINS_21_bz_ArrayExprConstantIiEEEENS_10_bz_updateIiiEEEEvRKT_T0_
	.section	.text._ZN5blitz6ETBaseINS_13_bz_ArrayExprINS_21_bz_ArrayExprConstantIbEEEEEC2Ev,"axG",@progbits,_ZN5blitz6ETBaseINS_13_bz_ArrayExprINS_21_bz_ArrayExprConstantIbEEEEEC5Ev,comdat
	.align 2
	.weak	_ZN5blitz6ETBaseINS_13_bz_ArrayExprINS_21_bz_ArrayExprConstantIbEEEEEC2Ev
	.type	_ZN5blitz6ETBaseINS_13_bz_ArrayExprINS_21_bz_ArrayExprConstantIbEEEEEC2Ev, @function
_ZN5blitz6ETBaseINS_13_bz_ArrayExprINS_21_bz_ArrayExprConstantIbEEEEEC2Ev:
.LFB7474:
	.cfi_startproc
	pushq	%rbp
	.cfi_def_cfa_offset 16
	.cfi_offset 6, -16
	movq	%rsp, %rbp
	.cfi_def_cfa_register 6
	movq	%rdi, -8(%rbp)
	nop
	popq	%rbp
	.cfi_def_cfa 7, 8
	ret
	.cfi_endproc
.LFE7474:
	.size	_ZN5blitz6ETBaseINS_13_bz_ArrayExprINS_21_bz_ArrayExprConstantIbEEEEEC2Ev, .-_ZN5blitz6ETBaseINS_13_bz_ArrayExprINS_21_bz_ArrayExprConstantIbEEEEEC2Ev
	.weak	_ZN5blitz6ETBaseINS_13_bz_ArrayExprINS_21_bz_ArrayExprConstantIbEEEEEC1Ev
	.set	_ZN5blitz6ETBaseINS_13_bz_ArrayExprINS_21_bz_ArrayExprConstantIbEEEEEC1Ev,_ZN5blitz6ETBaseINS_13_bz_ArrayExprINS_21_bz_ArrayExprConstantIbEEEEEC2Ev
	.section	.text._ZN5blitz21_bz_ArrayExprConstantIbEC2Eb,"axG",@progbits,_ZN5blitz21_bz_ArrayExprConstantIbEC5Eb,comdat
	.align 2
	.weak	_ZN5blitz21_bz_ArrayExprConstantIbEC2Eb
	.type	_ZN5blitz21_bz_ArrayExprConstantIbEC2Eb, @function
_ZN5blitz21_bz_ArrayExprConstantIbEC2Eb:
.LFB7477:
	.cfi_startproc
	pushq	%rbp
	.cfi_def_cfa_offset 16
	.cfi_offset 6, -16
	movq	%rsp, %rbp
	.cfi_def_cfa_register 6
	movq	%rdi, -8(%rbp)
	movl	%esi, %eax
	movb	%al, -12(%rbp)
	movq	-8(%rbp), %rax
	movzbl	-12(%rbp), %edx
	movb	%dl, (%rax)
	nop
	popq	%rbp
	.cfi_def_cfa 7, 8
	ret
	.cfi_endproc
.LFE7477:
	.size	_ZN5blitz21_bz_ArrayExprConstantIbEC2Eb, .-_ZN5blitz21_bz_ArrayExprConstantIbEC2Eb
	.weak	_ZN5blitz21_bz_ArrayExprConstantIbEC1Eb
	.set	_ZN5blitz21_bz_ArrayExprConstantIbEC1Eb,_ZN5blitz21_bz_ArrayExprConstantIbEC2Eb
	.section	.text._ZNK5blitz6ETBaseINS_13_bz_ArrayExprINS_21_bz_ArrayExprConstantIbEEEEE6unwrapEv,"axG",@progbits,_ZNK5blitz6ETBaseINS_13_bz_ArrayExprINS_21_bz_ArrayExprConstantIbEEEEE6unwrapEv,comdat
	.align 2
	.weak	_ZNK5blitz6ETBaseINS_13_bz_ArrayExprINS_21_bz_ArrayExprConstantIbEEEEE6unwrapEv
	.type	_ZNK5blitz6ETBaseINS_13_bz_ArrayExprINS_21_bz_ArrayExprConstantIbEEEEE6unwrapEv, @function
_ZNK5blitz6ETBaseINS_13_bz_ArrayExprINS_21_bz_ArrayExprConstantIbEEEEE6unwrapEv:
.LFB7479:
	.cfi_startproc
	pushq	%rbp
	.cfi_def_cfa_offset 16
	.cfi_offset 6, -16
	movq	%rsp, %rbp
	.cfi_def_cfa_register 6
	movq	%rdi, -8(%rbp)
	movq	-8(%rbp), %rax
	popq	%rbp
	.cfi_def_cfa 7, 8
	ret
	.cfi_endproc
.LFE7479:
	.size	_ZNK5blitz6ETBaseINS_13_bz_ArrayExprINS_21_bz_ArrayExprConstantIbEEEEE6unwrapEv, .-_ZNK5blitz6ETBaseINS_13_bz_ArrayExprINS_21_bz_ArrayExprConstantIbEEEEE6unwrapEv
	.section	.text._ZN5blitz13_bz_ArrayExprINS_21_bz_ArrayExprConstantIbEEEC2ERKS3_,"axG",@progbits,_ZN5blitz13_bz_ArrayExprINS_21_bz_ArrayExprConstantIbEEEC5ERKS3_,comdat
	.align 2
	.weak	_ZN5blitz13_bz_ArrayExprINS_21_bz_ArrayExprConstantIbEEEC2ERKS3_
	.type	_ZN5blitz13_bz_ArrayExprINS_21_bz_ArrayExprConstantIbEEEC2ERKS3_, @function
_ZN5blitz13_bz_ArrayExprINS_21_bz_ArrayExprConstantIbEEEC2ERKS3_:
.LFB7481:
	.cfi_startproc
	pushq	%rbp
	.cfi_def_cfa_offset 16
	.cfi_offset 6, -16
	movq	%rsp, %rbp
	.cfi_def_cfa_register 6
	subq	$16, %rsp
	movq	%rdi, -8(%rbp)
	movq	%rsi, -16(%rbp)
	movq	-16(%rbp), %rdx
	movq	-8(%rbp), %rax
	movq	%rdx, %rsi
	movq	%rax, %rdi
	call	_ZN5blitz6ETBaseINS_13_bz_ArrayExprINS_21_bz_ArrayExprConstantIbEEEEEC2ERKS5_
	movq	-8(%rbp), %rax
	movq	-16(%rbp), %rdx
	movq	%rdx, %rsi
	movq	%rax, %rdi
	call	_ZN5blitz21_bz_ArrayExprConstantIbEC1ERKS1_
	nop
	leave
	.cfi_def_cfa 7, 8
	ret
	.cfi_endproc
.LFE7481:
	.size	_ZN5blitz13_bz_ArrayExprINS_21_bz_ArrayExprConstantIbEEEC2ERKS3_, .-_ZN5blitz13_bz_ArrayExprINS_21_bz_ArrayExprConstantIbEEEC2ERKS3_
	.weak	_ZN5blitz13_bz_ArrayExprINS_21_bz_ArrayExprConstantIbEEEC1ERKS3_
	.set	_ZN5blitz13_bz_ArrayExprINS_21_bz_ArrayExprConstantIbEEEC1ERKS3_,_ZN5blitz13_bz_ArrayExprINS_21_bz_ArrayExprConstantIbEEEC2ERKS3_
	.section	.text._ZN5blitz10TinyVectorIbLi2EE12_tv_evaluateINS_13_bz_ArrayExprINS_21_bz_ArrayExprConstantIbEEEENS_10_bz_updateIbbEEEEvRKT_T0_,"axG",@progbits,_ZN5blitz10TinyVectorIbLi2EE12_tv_evaluateINS_13_bz_ArrayExprINS_21_bz_ArrayExprConstantIbEEEENS_10_bz_updateIbbEEEEvRKT_T0_,comdat
	.align 2
	.weak	_ZN5blitz10TinyVectorIbLi2EE12_tv_evaluateINS_13_bz_ArrayExprINS_21_bz_ArrayExprConstantIbEEEENS_10_bz_updateIbbEEEEvRKT_T0_
	.type	_ZN5blitz10TinyVectorIbLi2EE12_tv_evaluateINS_13_bz_ArrayExprINS_21_bz_ArrayExprConstantIbEEEENS_10_bz_updateIbbEEEEvRKT_T0_, @function
_ZN5blitz10TinyVectorIbLi2EE12_tv_evaluateINS_13_bz_ArrayExprINS_21_bz_ArrayExprConstantIbEEEENS_10_bz_updateIbbEEEEvRKT_T0_:
.LFB7483:
	.cfi_startproc
	pushq	%rbp
	.cfi_def_cfa_offset 16
	.cfi_offset 6, -16
	movq	%rsp, %rbp
	.cfi_def_cfa_register 6
	subq	$32, %rsp
	movq	%rdi, -24(%rbp)
	movq	%rsi, -32(%rbp)
	movb	$0, -1(%rbp)
	movq	-32(%rbp), %rdx
	movq	-24(%rbp), %rax
	movq	%rdx, %rsi
	movq	%rax, %rdi
	call	_ZN5blitz13_tv_evaluatorILb0ELi2EE17select_evaluationIbNS_13_bz_ArrayExprINS_21_bz_ArrayExprConstantIbEEEENS_10_bz_updateIbbEEEEvRNS_10TinyVectorIT_Li2EEERKT0_T1_
	nop
	leave
	.cfi_def_cfa 7, 8
	ret
	.cfi_endproc
.LFE7483:
	.size	_ZN5blitz10TinyVectorIbLi2EE12_tv_evaluateINS_13_bz_ArrayExprINS_21_bz_ArrayExprConstantIbEEEENS_10_bz_updateIbbEEEEvRKT_T0_, .-_ZN5blitz10TinyVectorIbLi2EE12_tv_evaluateINS_13_bz_ArrayExprINS_21_bz_ArrayExprConstantIbEEEENS_10_bz_updateIbbEEEEvRKT_T0_
	.section	.text._ZNK5blitz10TinyVectorIiLi2EEixEj,"axG",@progbits,_ZNK5blitz10TinyVectorIiLi2EEixEj,comdat
	.align 2
	.weak	_ZNK5blitz10TinyVectorIiLi2EEixEj
	.type	_ZNK5blitz10TinyVectorIiLi2EEixEj, @function
_ZNK5blitz10TinyVectorIiLi2EEixEj:
.LFB7484:
	.cfi_startproc
	pushq	%rbp
	.cfi_def_cfa_offset 16
	.cfi_offset 6, -16
	movq	%rsp, %rbp
	.cfi_def_cfa_register 6
	movq	%rdi, -8(%rbp)
	movl	%esi, -12(%rbp)
	movl	-12(%rbp), %eax
	leaq	0(,%rax,4), %rdx
	movq	-8(%rbp), %rax
	addq	%rdx, %rax
	popq	%rbp
	.cfi_def_cfa 7, 8
	ret
	.cfi_endproc
.LFE7484:
	.size	_ZNK5blitz10TinyVectorIiLi2EEixEj, .-_ZNK5blitz10TinyVectorIiLi2EEixEj
	.section	.text._ZNK5blitz19GeneralArrayStorageILi2EE23allRanksStoredAscendingEv,"axG",@progbits,_ZNK5blitz19GeneralArrayStorageILi2EE23allRanksStoredAscendingEv,comdat
	.align 2
	.weak	_ZNK5blitz19GeneralArrayStorageILi2EE23allRanksStoredAscendingEv
	.type	_ZNK5blitz19GeneralArrayStorageILi2EE23allRanksStoredAscendingEv, @function
_ZNK5blitz19GeneralArrayStorageILi2EE23allRanksStoredAscendingEv:
.LFB7485:
	.cfi_startproc
	pushq	%rbp
	.cfi_def_cfa_offset 16
	.cfi_offset 6, -16
	movq	%rsp, %rbp
	.cfi_def_cfa_register 6
	subq	$32, %rsp
	movq	%rdi, -24(%rbp)
	movl	$0, -4(%rbp)
.L235:
	cmpl	$1, -4(%rbp)
	jg	.L232
	movl	-4(%rbp), %eax
	movq	-24(%rbp), %rdx
	addq	$4, %rdx
	movl	%eax, %esi
	movq	%rdx, %rdi
	call	_ZNK5blitz10TinyVectorIbLi2EEixEj
	movzbl	(%rax), %eax
	xorl	$1, %eax
	testb	%al, %al
	je	.L233
	movl	$0, %eax
	jmp	.L234
.L233:
	addl	$1, -4(%rbp)
	jmp	.L235
.L232:
	movl	$1, %eax
.L234:
	leave
	.cfi_def_cfa 7, 8
	ret
	.cfi_endproc
.LFE7485:
	.size	_ZNK5blitz19GeneralArrayStorageILi2EE23allRanksStoredAscendingEv, .-_ZNK5blitz19GeneralArrayStorageILi2EE23allRanksStoredAscendingEv
	.section	.text._ZNK5blitz5ArrayIfLi2EE21isRankStoredAscendingEi,"axG",@progbits,_ZNK5blitz5ArrayIfLi2EE21isRankStoredAscendingEi,comdat
	.align 2
	.weak	_ZNK5blitz5ArrayIfLi2EE21isRankStoredAscendingEi
	.type	_ZNK5blitz5ArrayIfLi2EE21isRankStoredAscendingEi, @function
_ZNK5blitz5ArrayIfLi2EE21isRankStoredAscendingEi:
.LFB7486:
	.cfi_startproc
	pushq	%rbp
	.cfi_def_cfa_offset 16
	.cfi_offset 6, -16
	movq	%rsp, %rbp
	.cfi_def_cfa_register 6
	subq	$16, %rsp
	movq	%rdi, -8(%rbp)
	movl	%esi, -12(%rbp)
	movq	-8(%rbp), %rax
	leaq	16(%rax), %rdx
	movl	-12(%rbp), %eax
	movl	%eax, %esi
	movq	%rdx, %rdi
	call	_ZNK5blitz19GeneralArrayStorageILi2EE21isRankStoredAscendingEi
	leave
	.cfi_def_cfa 7, 8
	ret
	.cfi_endproc
.LFE7486:
	.size	_ZNK5blitz5ArrayIfLi2EE21isRankStoredAscendingEi, .-_ZNK5blitz5ArrayIfLi2EE21isRankStoredAscendingEi
	.section	.text._ZN5blitz5ArrayIfLi2EE19calculateZeroOffsetEv,"axG",@progbits,_ZN5blitz5ArrayIfLi2EE19calculateZeroOffsetEv,comdat
	.align 2
	.weak	_ZN5blitz5ArrayIfLi2EE19calculateZeroOffsetEv
	.type	_ZN5blitz5ArrayIfLi2EE19calculateZeroOffsetEv, @function
_ZN5blitz5ArrayIfLi2EE19calculateZeroOffsetEv:
.LFB7487:
	.cfi_startproc
	pushq	%rbp
	.cfi_def_cfa_offset 16
	.cfi_offset 6, -16
	movq	%rsp, %rbp
	.cfi_def_cfa_register 6
	pushq	%rbx
	subq	$40, %rsp
	.cfi_offset 3, -24
	movq	%rdi, -40(%rbp)
	movq	-40(%rbp), %rax
	movq	$0, 64(%rax)
	movl	$0, -20(%rbp)
.L242:
	cmpl	$1, -20(%rbp)
	jg	.L243
	movl	-20(%rbp), %edx
	movq	-40(%rbp), %rax
	movl	%edx, %esi
	movq	%rax, %rdi
	call	_ZNK5blitz5ArrayIfLi2EE21isRankStoredAscendingEi
	xorl	$1, %eax
	testb	%al, %al
	je	.L240
	movl	-20(%rbp), %eax
	movq	-40(%rbp), %rdx
	addq	$40, %rdx
	movl	%eax, %esi
	movq	%rdx, %rdi
	call	_ZN5blitz10TinyVectorIiLi2EEixEj
	movl	(%rax), %eax
	leal	-1(%rax), %ebx
	movl	-20(%rbp), %edx
	movq	-40(%rbp), %rax
	movl	%edx, %esi
	movq	%rax, %rdi
	call	_ZNK5blitz5ArrayIfLi2EE4baseEi
	addl	%ebx, %eax
	movslq	%eax, %rbx
	movl	-20(%rbp), %eax
	movq	-40(%rbp), %rdx
	addq	$48, %rdx
	movl	%eax, %esi
	movq	%rdx, %rdi
	call	_ZN5blitz10TinyVectorIlLi2EEixEj
	movq	(%rax), %rax
	movq	%rbx, %rcx
	imulq	%rax, %rcx
	movq	-40(%rbp), %rax
	movq	64(%rax), %rax
	subq	%rcx, %rax
	movq	%rax, %rdx
	movq	-40(%rbp), %rax
	movq	%rdx, 64(%rax)
	jmp	.L241
.L240:
	movl	-20(%rbp), %eax
	movq	-40(%rbp), %rdx
	addq	$48, %rdx
	movl	%eax, %esi
	movq	%rdx, %rdi
	call	_ZN5blitz10TinyVectorIlLi2EEixEj
	movq	(%rax), %rbx
	movl	-20(%rbp), %edx
	movq	-40(%rbp), %rax
	movl	%edx, %esi
	movq	%rax, %rdi
	call	_ZNK5blitz5ArrayIfLi2EE4baseEi
	cltq
	imulq	%rax, %rbx
	movq	%rbx, %rcx
	movq	-40(%rbp), %rax
	movq	64(%rax), %rax
	subq	%rcx, %rax
	movq	%rax, %rdx
	movq	-40(%rbp), %rax
	movq	%rdx, 64(%rax)
.L241:
	addl	$1, -20(%rbp)
	jmp	.L242
.L243:
	nop
	movq	-8(%rbp), %rbx
	leave
	.cfi_def_cfa 7, 8
	ret
	.cfi_endproc
.LFE7487:
	.size	_ZN5blitz5ArrayIfLi2EE19calculateZeroOffsetEv, .-_ZN5blitz5ArrayIfLi2EE19calculateZeroOffsetEv
	.section	.text._ZNK5blitz19GeneralArrayStorageILi2EE8orderingEi,"axG",@progbits,_ZNK5blitz19GeneralArrayStorageILi2EE8orderingEi,comdat
	.align 2
	.weak	_ZNK5blitz19GeneralArrayStorageILi2EE8orderingEi
	.type	_ZNK5blitz19GeneralArrayStorageILi2EE8orderingEi, @function
_ZNK5blitz19GeneralArrayStorageILi2EE8orderingEi:
.LFB7488:
	.cfi_startproc
	pushq	%rbp
	.cfi_def_cfa_offset 16
	.cfi_offset 6, -16
	movq	%rsp, %rbp
	.cfi_def_cfa_register 6
	subq	$16, %rsp
	movq	%rdi, -8(%rbp)
	movl	%esi, -12(%rbp)
	movl	-12(%rbp), %eax
	movq	-8(%rbp), %rdx
	addq	$8, %rdx
	movl	%eax, %esi
	movq	%rdx, %rdi
	call	_ZNK5blitz10TinyVectorIiLi2EEixEj
	movl	(%rax), %eax
	leave
	.cfi_def_cfa 7, 8
	ret
	.cfi_endproc
.LFE7488:
	.size	_ZNK5blitz19GeneralArrayStorageILi2EE8orderingEi, .-_ZNK5blitz19GeneralArrayStorageILi2EE8orderingEi
	.section	.text._ZN5blitz25_bz_meta_vectorProductRetILi2ELi0EmE1fINS_10TinyVectorIiLi2EEEEEmRKT_,"axG",@progbits,_ZN5blitz25_bz_meta_vectorProductRetILi2ELi0EmE1fINS_10TinyVectorIiLi2EEEEEmRKT_,comdat
	.weak	_ZN5blitz25_bz_meta_vectorProductRetILi2ELi0EmE1fINS_10TinyVectorIiLi2EEEEEmRKT_
	.type	_ZN5blitz25_bz_meta_vectorProductRetILi2ELi0EmE1fINS_10TinyVectorIiLi2EEEEEmRKT_, @function
_ZN5blitz25_bz_meta_vectorProductRetILi2ELi0EmE1fINS_10TinyVectorIiLi2EEEEEmRKT_:
.LFB7489:
	.cfi_startproc
	pushq	%rbp
	.cfi_def_cfa_offset 16
	.cfi_offset 6, -16
	movq	%rsp, %rbp
	.cfi_def_cfa_register 6
	pushq	%rbx
	subq	$24, %rsp
	.cfi_offset 3, -24
	movq	%rdi, -24(%rbp)
	movq	-24(%rbp), %rax
	movl	$0, %esi
	movq	%rax, %rdi
	call	_ZNK5blitz10TinyVectorIiLi2EEixEj
	movl	(%rax), %eax
	movslq	%eax, %rbx
	movq	-24(%rbp), %rax
	movq	%rax, %rdi
	call	_ZN5blitz25_bz_meta_vectorProductRetILi2ELi1EmE1fINS_10TinyVectorIiLi2EEEEEmRKT_
	imulq	%rbx, %rax
	movq	-8(%rbp), %rbx
	leave
	.cfi_def_cfa 7, 8
	ret
	.cfi_endproc
.LFE7489:
	.size	_ZN5blitz25_bz_meta_vectorProductRetILi2ELi0EmE1fINS_10TinyVectorIiLi2EEEEEmRKT_, .-_ZN5blitz25_bz_meta_vectorProductRetILi2ELi0EmE1fINS_10TinyVectorIiLi2EEEEEmRKT_
	.section	.text._ZN5blitz11MemoryBlockIfEC2Em,"axG",@progbits,_ZN5blitz11MemoryBlockIfEC5Em,comdat
	.align 2
	.weak	_ZN5blitz11MemoryBlockIfEC2Em
	.type	_ZN5blitz11MemoryBlockIfEC2Em, @function
_ZN5blitz11MemoryBlockIfEC2Em:
.LFB7491:
	.cfi_startproc
	pushq	%rbp
	.cfi_def_cfa_offset 16
	.cfi_offset 6, -16
	movq	%rsp, %rbp
	.cfi_def_cfa_register 6
	subq	$32, %rsp
	movq	%rdi, -24(%rbp)
	movq	%rsi, -32(%rbp)
	leaq	16+_ZTVN5blitz11MemoryBlockIfEE(%rip), %rdx
	movq	-24(%rbp), %rax
	movq	%rdx, (%rax)
	movl	$1, -4(%rbp)
	movl	$0, -8(%rbp)
	movq	-24(%rbp), %rax
	movq	-32(%rbp), %rdx
	movq	%rdx, 32(%rax)
	movq	-24(%rbp), %rax
	movq	32(%rax), %rdx
	movq	-24(%rbp), %rax
	movq	%rdx, %rsi
	movq	%rax, %rdi
	call	_ZN5blitz11MemoryBlockIfE8allocateEm
	movq	-24(%rbp), %rax
	movl	$1, 40(%rax)
	nop
	leave
	.cfi_def_cfa 7, 8
	ret
	.cfi_endproc
.LFE7491:
	.size	_ZN5blitz11MemoryBlockIfEC2Em, .-_ZN5blitz11MemoryBlockIfEC2Em
	.weak	_ZN5blitz11MemoryBlockIfEC1Em
	.set	_ZN5blitz11MemoryBlockIfEC1Em,_ZN5blitz11MemoryBlockIfEC2Em
	.section	.text._ZN5blitz11MemoryBlockIfE4dataEv,"axG",@progbits,_ZN5blitz11MemoryBlockIfE4dataEv,comdat
	.align 2
	.weak	_ZN5blitz11MemoryBlockIfE4dataEv
	.type	_ZN5blitz11MemoryBlockIfE4dataEv, @function
_ZN5blitz11MemoryBlockIfE4dataEv:
.LFB7493:
	.cfi_startproc
	pushq	%rbp
	.cfi_def_cfa_offset 16
	.cfi_offset 6, -16
	movq	%rsp, %rbp
	.cfi_def_cfa_register 6
	movq	%rdi, -8(%rbp)
	movq	-8(%rbp), %rax
	movq	16(%rax), %rax
	popq	%rbp
	.cfi_def_cfa 7, 8
	ret
	.cfi_endproc
.LFE7493:
	.size	_ZN5blitz11MemoryBlockIfE4dataEv, .-_ZN5blitz11MemoryBlockIfE4dataEv
	.section	.text._ZN5blitz11MemoryBlockIfE15removeReferenceEv,"axG",@progbits,_ZN5blitz11MemoryBlockIfE15removeReferenceEv,comdat
	.align 2
	.weak	_ZN5blitz11MemoryBlockIfE15removeReferenceEv
	.type	_ZN5blitz11MemoryBlockIfE15removeReferenceEv, @function
_ZN5blitz11MemoryBlockIfE15removeReferenceEv:
.LFB7494:
	.cfi_startproc
	pushq	%rbp
	.cfi_def_cfa_offset 16
	.cfi_offset 6, -16
	movq	%rsp, %rbp
	.cfi_def_cfa_register 6
	movq	%rdi, -24(%rbp)
	movq	-24(%rbp), %rax
	movl	40(%rax), %eax
	leal	-1(%rax), %edx
	movq	-24(%rbp), %rax
	movl	%edx, 40(%rax)
	movq	-24(%rbp), %rax
	movl	40(%rax), %eax
	movl	%eax, -4(%rbp)
	movl	-4(%rbp), %eax
	popq	%rbp
	.cfi_def_cfa 7, 8
	ret
	.cfi_endproc
.LFE7494:
	.size	_ZN5blitz11MemoryBlockIfE15removeReferenceEv, .-_ZN5blitz11MemoryBlockIfE15removeReferenceEv
	.section	.text._ZN5blitz11MemoryBlockIfE10deallocateEv,"axG",@progbits,_ZN5blitz11MemoryBlockIfE10deallocateEv,comdat
	.align 2
	.weak	_ZN5blitz11MemoryBlockIfE10deallocateEv
	.type	_ZN5blitz11MemoryBlockIfE10deallocateEv, @function
_ZN5blitz11MemoryBlockIfE10deallocateEv:
.LFB7495:
	.cfi_startproc
	pushq	%rbp
	.cfi_def_cfa_offset 16
	.cfi_offset 6, -16
	movq	%rsp, %rbp
	.cfi_def_cfa_register 6
	pushq	%rbx
	subq	$56, %rsp
	.cfi_offset 3, -24
	movq	%rdi, -56(%rbp)
	movq	$4, -24(%rbp)
	movl	$64, -28(%rbp)
	movq	$1024, -40(%rbp)
	movq	-56(%rbp), %rax
	movq	32(%rax), %rax
	salq	$2, %rax
	movq	%rax, -48(%rbp)
	movq	-56(%rbp), %rax
	movzbl	8(%rax), %eax
	xorl	$1, %eax
	testb	%al, %al
	je	.L254
	movq	-56(%rbp), %rax
	movq	24(%rax), %rax
	testq	%rax, %rax
	je	.L259
	movq	-56(%rbp), %rax
	movq	24(%rax), %rax
	movq	%rax, %rdi
	call	_ZdaPv@PLT
	jmp	.L259
.L254:
	cmpq	$1023, -48(%rbp)
	ja	.L256
	movq	-56(%rbp), %rax
	movq	24(%rax), %rax
	testq	%rax, %rax
	je	.L259
	movq	-56(%rbp), %rax
	movq	24(%rax), %rdx
	movq	-56(%rbp), %rax
	movq	24(%rax), %rax
	subq	$8, %rax
	movq	(%rax), %rax
	salq	$2, %rax
	leaq	(%rdx,%rax), %rbx
.L258:
	movq	-56(%rbp), %rax
	movq	24(%rax), %rax
	cmpq	%rax, %rbx
	je	.L257
	subq	$4, %rbx
	movq	%rbx, %rdi
	call	_ZN5blitz10TinyVectorIfLi1EED1Ev
	jmp	.L258
.L257:
	movq	-56(%rbp), %rax
	movq	24(%rax), %rax
	subq	$8, %rax
	movq	(%rax), %rax
	addq	$2, %rax
	leaq	0(,%rax,4), %rdx
	movq	-56(%rbp), %rax
	movq	24(%rax), %rax
	subq	$8, %rax
	movq	%rdx, %rsi
	movq	%rax, %rdi
	call	_ZdaPvm@PLT
	jmp	.L259
.L256:
	movq	-56(%rbp), %rax
	movq	24(%rax), %rax
	testq	%rax, %rax
	je	.L259
	movq	-56(%rbp), %rax
	movq	24(%rax), %rax
	movq	%rax, %rdi
	call	_ZdaPv@PLT
.L259:
	nop
	movq	-8(%rbp), %rbx
	leave
	.cfi_def_cfa 7, 8
	ret
	.cfi_endproc
.LFE7495:
	.size	_ZN5blitz11MemoryBlockIfE10deallocateEv, .-_ZN5blitz11MemoryBlockIfE10deallocateEv
	.section	.text._ZNK5blitz19GeneralArrayStorageILi2EE8orderingEv,"axG",@progbits,_ZNK5blitz19GeneralArrayStorageILi2EE8orderingEv,comdat
	.align 2
	.weak	_ZNK5blitz19GeneralArrayStorageILi2EE8orderingEv
	.type	_ZNK5blitz19GeneralArrayStorageILi2EE8orderingEv, @function
_ZNK5blitz19GeneralArrayStorageILi2EE8orderingEv:
.LFB7496:
	.cfi_startproc
	pushq	%rbp
	.cfi_def_cfa_offset 16
	.cfi_offset 6, -16
	movq	%rsp, %rbp
	.cfi_def_cfa_register 6
	movq	%rdi, -8(%rbp)
	movq	-8(%rbp), %rax
	addq	$8, %rax
	popq	%rbp
	.cfi_def_cfa 7, 8
	ret
	.cfi_endproc
.LFE7496:
	.size	_ZNK5blitz19GeneralArrayStorageILi2EE8orderingEv, .-_ZNK5blitz19GeneralArrayStorageILi2EE8orderingEv
	.section	.text._ZNK5blitz19GeneralArrayStorageILi2EE13ascendingFlagEv,"axG",@progbits,_ZNK5blitz19GeneralArrayStorageILi2EE13ascendingFlagEv,comdat
	.align 2
	.weak	_ZNK5blitz19GeneralArrayStorageILi2EE13ascendingFlagEv
	.type	_ZNK5blitz19GeneralArrayStorageILi2EE13ascendingFlagEv, @function
_ZNK5blitz19GeneralArrayStorageILi2EE13ascendingFlagEv:
.LFB7497:
	.cfi_startproc
	pushq	%rbp
	.cfi_def_cfa_offset 16
	.cfi_offset 6, -16
	movq	%rsp, %rbp
	.cfi_def_cfa_register 6
	movq	%rdi, -8(%rbp)
	movq	-8(%rbp), %rax
	addq	$4, %rax
	popq	%rbp
	.cfi_def_cfa 7, 8
	ret
	.cfi_endproc
.LFE7497:
	.size	_ZNK5blitz19GeneralArrayStorageILi2EE13ascendingFlagEv, .-_ZNK5blitz19GeneralArrayStorageILi2EE13ascendingFlagEv
	.section	.text._ZNK5blitz20MemoryBlockReferenceIfE12addReferenceEv,"axG",@progbits,_ZNK5blitz20MemoryBlockReferenceIfE12addReferenceEv,comdat
	.align 2
	.weak	_ZNK5blitz20MemoryBlockReferenceIfE12addReferenceEv
	.type	_ZNK5blitz20MemoryBlockReferenceIfE12addReferenceEv, @function
_ZNK5blitz20MemoryBlockReferenceIfE12addReferenceEv:
.LFB7498:
	.cfi_startproc
	pushq	%rbp
	.cfi_def_cfa_offset 16
	.cfi_offset 6, -16
	movq	%rsp, %rbp
	.cfi_def_cfa_register 6
	subq	$16, %rsp
	movq	%rdi, -8(%rbp)
	movq	-8(%rbp), %rax
	movq	8(%rax), %rax
	testq	%rax, %rax
	je	.L266
	movq	-8(%rbp), %rax
	movq	8(%rax), %rax
	movq	%rax, %rdi
	call	_ZN5blitz11MemoryBlockIfE12addReferenceEv
.L266:
	nop
	leave
	.cfi_def_cfa 7, 8
	ret
	.cfi_endproc
.LFE7498:
	.size	_ZNK5blitz20MemoryBlockReferenceIfE12addReferenceEv, .-_ZNK5blitz20MemoryBlockReferenceIfE12addReferenceEv
	.section	.text._ZNK5blitz10TinyVectorIlLi2EEixEj,"axG",@progbits,_ZNK5blitz10TinyVectorIlLi2EEixEj,comdat
	.align 2
	.weak	_ZNK5blitz10TinyVectorIlLi2EEixEj
	.type	_ZNK5blitz10TinyVectorIlLi2EEixEj, @function
_ZNK5blitz10TinyVectorIlLi2EEixEj:
.LFB7574:
	.cfi_startproc
	pushq	%rbp
	.cfi_def_cfa_offset 16
	.cfi_offset 6, -16
	movq	%rsp, %rbp
	.cfi_def_cfa_register 6
	movq	%rdi, -8(%rbp)
	movl	%esi, -12(%rbp)
	movl	-12(%rbp), %eax
	leaq	0(,%rax,8), %rdx
	movq	-8(%rbp), %rax
	addq	%rdx, %rax
	popq	%rbp
	.cfi_def_cfa 7, 8
	ret
	.cfi_endproc
.LFE7574:
	.size	_ZNK5blitz10TinyVectorIlLi2EEixEj, .-_ZNK5blitz10TinyVectorIlLi2EEixEj
	.section	.text._ZN5blitz18_bz_meta_vectorDotILi2ELi1EE1fINS_10TinyVectorIiLi2EEENS3_IlLi2EEEEENS_13promote_traitINT_9T_numtypeENT0_9T_numtypeEE9T_promoteERKS7_RKS9_,"axG",@progbits,_ZN5blitz18_bz_meta_vectorDotILi2ELi1EE1fINS_10TinyVectorIiLi2EEENS3_IlLi2EEEEENS_13promote_traitINT_9T_numtypeENT0_9T_numtypeEE9T_promoteERKS7_RKS9_,comdat
	.weak	_ZN5blitz18_bz_meta_vectorDotILi2ELi1EE1fINS_10TinyVectorIiLi2EEENS3_IlLi2EEEEENS_13promote_traitINT_9T_numtypeENT0_9T_numtypeEE9T_promoteERKS7_RKS9_
	.type	_ZN5blitz18_bz_meta_vectorDotILi2ELi1EE1fINS_10TinyVectorIiLi2EEENS3_IlLi2EEEEENS_13promote_traitINT_9T_numtypeENT0_9T_numtypeEE9T_promoteERKS7_RKS9_, @function
_ZN5blitz18_bz_meta_vectorDotILi2ELi1EE1fINS_10TinyVectorIiLi2EEENS3_IlLi2EEEEENS_13promote_traitINT_9T_numtypeENT0_9T_numtypeEE9T_promoteERKS7_RKS9_:
.LFB7575:
	.cfi_startproc
	pushq	%rbp
	.cfi_def_cfa_offset 16
	.cfi_offset 6, -16
	movq	%rsp, %rbp
	.cfi_def_cfa_register 6
	pushq	%rbx
	subq	$40, %rsp
	.cfi_offset 3, -24
	movq	%rdi, -40(%rbp)
	movq	%rsi, -48(%rbp)
	movq	-48(%rbp), %rdx
	movq	-40(%rbp), %rax
	movq	%rdx, %rsi
	movq	%rax, %rdi
	call	_ZN5blitz18_bz_meta_vectorDotILi0ELi0EE1fINS_10TinyVectorIiLi2EEENS3_IlLi2EEEEENS_20_bz_meta_nullOperandERKT_RKT0_
	movq	-40(%rbp), %rax
	movl	$1, %esi
	movq	%rax, %rdi
	call	_ZNK5blitz10TinyVectorIiLi2EEixEj
	movl	(%rax), %eax
	movslq	%eax, %rbx
	movq	-48(%rbp), %rax
	movl	$1, %esi
	movq	%rax, %rdi
	call	_ZNK5blitz10TinyVectorIlLi2EEixEj
	movq	(%rax), %rax
	imulq	%rbx, %rax
	movq	%rax, -24(%rbp)
	leaq	-24(%rbp), %rax
	movq	%rax, %rdi
	call	_ZN5blitzplIlEET_RKS1_NS_20_bz_meta_nullOperandE
	movq	-8(%rbp), %rbx
	leave
	.cfi_def_cfa 7, 8
	ret
	.cfi_endproc
.LFE7575:
	.size	_ZN5blitz18_bz_meta_vectorDotILi2ELi1EE1fINS_10TinyVectorIiLi2EEENS3_IlLi2EEEEENS_13promote_traitINT_9T_numtypeENT0_9T_numtypeEE9T_promoteERKS7_RKS9_, .-_ZN5blitz18_bz_meta_vectorDotILi2ELi1EE1fINS_10TinyVectorIiLi2EEENS3_IlLi2EEEEENS_13promote_traitINT_9T_numtypeENT0_9T_numtypeEE9T_promoteERKS7_RKS9_
	.section	.text._ZN5blitz6ETBaseINS_13_bz_ArrayExprINS_21_bz_ArrayExprConstantIiEEEEEC2ERKS5_,"axG",@progbits,_ZN5blitz6ETBaseINS_13_bz_ArrayExprINS_21_bz_ArrayExprConstantIiEEEEEC5ERKS5_,comdat
	.align 2
	.weak	_ZN5blitz6ETBaseINS_13_bz_ArrayExprINS_21_bz_ArrayExprConstantIiEEEEEC2ERKS5_
	.type	_ZN5blitz6ETBaseINS_13_bz_ArrayExprINS_21_bz_ArrayExprConstantIiEEEEEC2ERKS5_, @function
_ZN5blitz6ETBaseINS_13_bz_ArrayExprINS_21_bz_ArrayExprConstantIiEEEEEC2ERKS5_:
.LFB7577:
	.cfi_startproc
	pushq	%rbp
	.cfi_def_cfa_offset 16
	.cfi_offset 6, -16
	movq	%rsp, %rbp
	.cfi_def_cfa_register 6
	movq	%rdi, -8(%rbp)
	movq	%rsi, -16(%rbp)
	nop
	popq	%rbp
	.cfi_def_cfa 7, 8
	ret
	.cfi_endproc
.LFE7577:
	.size	_ZN5blitz6ETBaseINS_13_bz_ArrayExprINS_21_bz_ArrayExprConstantIiEEEEEC2ERKS5_, .-_ZN5blitz6ETBaseINS_13_bz_ArrayExprINS_21_bz_ArrayExprConstantIiEEEEEC2ERKS5_
	.weak	_ZN5blitz6ETBaseINS_13_bz_ArrayExprINS_21_bz_ArrayExprConstantIiEEEEEC1ERKS5_
	.set	_ZN5blitz6ETBaseINS_13_bz_ArrayExprINS_21_bz_ArrayExprConstantIiEEEEEC1ERKS5_,_ZN5blitz6ETBaseINS_13_bz_ArrayExprINS_21_bz_ArrayExprConstantIiEEEEEC2ERKS5_
	.section	.text._ZN5blitz21_bz_ArrayExprConstantIiEC2ERKS1_,"axG",@progbits,_ZN5blitz21_bz_ArrayExprConstantIiEC5ERKS1_,comdat
	.align 2
	.weak	_ZN5blitz21_bz_ArrayExprConstantIiEC2ERKS1_
	.type	_ZN5blitz21_bz_ArrayExprConstantIiEC2ERKS1_, @function
_ZN5blitz21_bz_ArrayExprConstantIiEC2ERKS1_:
.LFB7580:
	.cfi_startproc
	pushq	%rbp
	.cfi_def_cfa_offset 16
	.cfi_offset 6, -16
	movq	%rsp, %rbp
	.cfi_def_cfa_register 6
	movq	%rdi, -8(%rbp)
	movq	%rsi, -16(%rbp)
	movq	-16(%rbp), %rax
	movl	(%rax), %edx
	movq	-8(%rbp), %rax
	movl	%edx, (%rax)
	nop
	popq	%rbp
	.cfi_def_cfa 7, 8
	ret
	.cfi_endproc
.LFE7580:
	.size	_ZN5blitz21_bz_ArrayExprConstantIiEC2ERKS1_, .-_ZN5blitz21_bz_ArrayExprConstantIiEC2ERKS1_
	.weak	_ZN5blitz21_bz_ArrayExprConstantIiEC1ERKS1_
	.set	_ZN5blitz21_bz_ArrayExprConstantIiEC1ERKS1_,_ZN5blitz21_bz_ArrayExprConstantIiEC2ERKS1_
	.section	.text._ZN5blitz13_tv_evaluatorILb0ELi2EE17select_evaluationIiNS_13_bz_ArrayExprINS_21_bz_ArrayExprConstantIiEEEENS_10_bz_updateIiiEEEEvRNS_10TinyVectorIT_Li2EEERKT0_T1_,"axG",@progbits,_ZN5blitz13_tv_evaluatorILb0ELi2EE17select_evaluationIiNS_13_bz_ArrayExprINS_21_bz_ArrayExprConstantIiEEEENS_10_bz_updateIiiEEEEvRNS_10TinyVectorIT_Li2EEERKT0_T1_,comdat
	.weak	_ZN5blitz13_tv_evaluatorILb0ELi2EE17select_evaluationIiNS_13_bz_ArrayExprINS_21_bz_ArrayExprConstantIiEEEENS_10_bz_updateIiiEEEEvRNS_10TinyVectorIT_Li2EEERKT0_T1_
	.type	_ZN5blitz13_tv_evaluatorILb0ELi2EE17select_evaluationIiNS_13_bz_ArrayExprINS_21_bz_ArrayExprConstantIiEEEENS_10_bz_updateIiiEEEEvRNS_10TinyVectorIT_Li2EEERKT0_T1_, @function
_ZN5blitz13_tv_evaluatorILb0ELi2EE17select_evaluationIiNS_13_bz_ArrayExprINS_21_bz_ArrayExprConstantIiEEEENS_10_bz_updateIiiEEEEvRNS_10TinyVectorIT_Li2EEERKT0_T1_:
.LFB7582:
	.cfi_startproc
	pushq	%rbp
	.cfi_def_cfa_offset 16
	.cfi_offset 6, -16
	movq	%rsp, %rbp
	.cfi_def_cfa_register 6
	subq	$32, %rsp
	movq	%rdi, -24(%rbp)
	movq	%rsi, -32(%rbp)
	movb	$0, -1(%rbp)
	movq	-24(%rbp), %rax
	movq	%rax, %rdi
	call	_ZN5blitz10TinyVectorIiLi2EE4dataEv
	movq	%rax, %rdx
	movq	-32(%rbp), %rax
	movq	%rax, %rsi
	movq	%rdx, %rdi
	call	_ZN5blitz13_tv_evaluatorILb0ELi2EE16evaluate_alignedIiNS_13_bz_ArrayExprINS_21_bz_ArrayExprConstantIiEEEENS_10_bz_updateIiiEEEEvPT_RKT0_T1_
	nop
	leave
	.cfi_def_cfa 7, 8
	ret
	.cfi_endproc
.LFE7582:
	.size	_ZN5blitz13_tv_evaluatorILb0ELi2EE17select_evaluationIiNS_13_bz_ArrayExprINS_21_bz_ArrayExprConstantIiEEEENS_10_bz_updateIiiEEEEvRNS_10TinyVectorIT_Li2EEERKT0_T1_, .-_ZN5blitz13_tv_evaluatorILb0ELi2EE17select_evaluationIiNS_13_bz_ArrayExprINS_21_bz_ArrayExprConstantIiEEEENS_10_bz_updateIiiEEEEvRNS_10TinyVectorIT_Li2EEERKT0_T1_
	.section	.text._ZN5blitz6ETBaseINS_13_bz_ArrayExprINS_21_bz_ArrayExprConstantIbEEEEEC2ERKS5_,"axG",@progbits,_ZN5blitz6ETBaseINS_13_bz_ArrayExprINS_21_bz_ArrayExprConstantIbEEEEEC5ERKS5_,comdat
	.align 2
	.weak	_ZN5blitz6ETBaseINS_13_bz_ArrayExprINS_21_bz_ArrayExprConstantIbEEEEEC2ERKS5_
	.type	_ZN5blitz6ETBaseINS_13_bz_ArrayExprINS_21_bz_ArrayExprConstantIbEEEEEC2ERKS5_, @function
_ZN5blitz6ETBaseINS_13_bz_ArrayExprINS_21_bz_ArrayExprConstantIbEEEEEC2ERKS5_:
.LFB7584:
	.cfi_startproc
	pushq	%rbp
	.cfi_def_cfa_offset 16
	.cfi_offset 6, -16
	movq	%rsp, %rbp
	.cfi_def_cfa_register 6
	movq	%rdi, -8(%rbp)
	movq	%rsi, -16(%rbp)
	nop
	popq	%rbp
	.cfi_def_cfa 7, 8
	ret
	.cfi_endproc
.LFE7584:
	.size	_ZN5blitz6ETBaseINS_13_bz_ArrayExprINS_21_bz_ArrayExprConstantIbEEEEEC2ERKS5_, .-_ZN5blitz6ETBaseINS_13_bz_ArrayExprINS_21_bz_ArrayExprConstantIbEEEEEC2ERKS5_
	.weak	_ZN5blitz6ETBaseINS_13_bz_ArrayExprINS_21_bz_ArrayExprConstantIbEEEEEC1ERKS5_
	.set	_ZN5blitz6ETBaseINS_13_bz_ArrayExprINS_21_bz_ArrayExprConstantIbEEEEEC1ERKS5_,_ZN5blitz6ETBaseINS_13_bz_ArrayExprINS_21_bz_ArrayExprConstantIbEEEEEC2ERKS5_
	.section	.text._ZN5blitz21_bz_ArrayExprConstantIbEC2ERKS1_,"axG",@progbits,_ZN5blitz21_bz_ArrayExprConstantIbEC5ERKS1_,comdat
	.align 2
	.weak	_ZN5blitz21_bz_ArrayExprConstantIbEC2ERKS1_
	.type	_ZN5blitz21_bz_ArrayExprConstantIbEC2ERKS1_, @function
_ZN5blitz21_bz_ArrayExprConstantIbEC2ERKS1_:
.LFB7587:
	.cfi_startproc
	pushq	%rbp
	.cfi_def_cfa_offset 16
	.cfi_offset 6, -16
	movq	%rsp, %rbp
	.cfi_def_cfa_register 6
	movq	%rdi, -8(%rbp)
	movq	%rsi, -16(%rbp)
	movq	-16(%rbp), %rax
	movzbl	(%rax), %edx
	movq	-8(%rbp), %rax
	movb	%dl, (%rax)
	nop
	popq	%rbp
	.cfi_def_cfa 7, 8
	ret
	.cfi_endproc
.LFE7587:
	.size	_ZN5blitz21_bz_ArrayExprConstantIbEC2ERKS1_, .-_ZN5blitz21_bz_ArrayExprConstantIbEC2ERKS1_
	.weak	_ZN5blitz21_bz_ArrayExprConstantIbEC1ERKS1_
	.set	_ZN5blitz21_bz_ArrayExprConstantIbEC1ERKS1_,_ZN5blitz21_bz_ArrayExprConstantIbEC2ERKS1_
	.section	.text._ZN5blitz13_tv_evaluatorILb0ELi2EE17select_evaluationIbNS_13_bz_ArrayExprINS_21_bz_ArrayExprConstantIbEEEENS_10_bz_updateIbbEEEEvRNS_10TinyVectorIT_Li2EEERKT0_T1_,"axG",@progbits,_ZN5blitz13_tv_evaluatorILb0ELi2EE17select_evaluationIbNS_13_bz_ArrayExprINS_21_bz_ArrayExprConstantIbEEEENS_10_bz_updateIbbEEEEvRNS_10TinyVectorIT_Li2EEERKT0_T1_,comdat
	.weak	_ZN5blitz13_tv_evaluatorILb0ELi2EE17select_evaluationIbNS_13_bz_ArrayExprINS_21_bz_ArrayExprConstantIbEEEENS_10_bz_updateIbbEEEEvRNS_10TinyVectorIT_Li2EEERKT0_T1_
	.type	_ZN5blitz13_tv_evaluatorILb0ELi2EE17select_evaluationIbNS_13_bz_ArrayExprINS_21_bz_ArrayExprConstantIbEEEENS_10_bz_updateIbbEEEEvRNS_10TinyVectorIT_Li2EEERKT0_T1_, @function
_ZN5blitz13_tv_evaluatorILb0ELi2EE17select_evaluationIbNS_13_bz_ArrayExprINS_21_bz_ArrayExprConstantIbEEEENS_10_bz_updateIbbEEEEvRNS_10TinyVectorIT_Li2EEERKT0_T1_:
.LFB7589:
	.cfi_startproc
	pushq	%rbp
	.cfi_def_cfa_offset 16
	.cfi_offset 6, -16
	movq	%rsp, %rbp
	.cfi_def_cfa_register 6
	subq	$32, %rsp
	movq	%rdi, -24(%rbp)
	movq	%rsi, -32(%rbp)
	movb	$0, -1(%rbp)
	movq	-24(%rbp), %rax
	movq	%rax, %rdi
	call	_ZN5blitz10TinyVectorIbLi2EE4dataEv
	movq	%rax, %rdx
	movq	-32(%rbp), %rax
	movq	%rax, %rsi
	movq	%rdx, %rdi
	call	_ZN5blitz13_tv_evaluatorILb0ELi2EE16evaluate_alignedIbNS_13_bz_ArrayExprINS_21_bz_ArrayExprConstantIbEEEENS_10_bz_updateIbbEEEEvPT_RKT0_T1_
	nop
	leave
	.cfi_def_cfa 7, 8
	ret
	.cfi_endproc
.LFE7589:
	.size	_ZN5blitz13_tv_evaluatorILb0ELi2EE17select_evaluationIbNS_13_bz_ArrayExprINS_21_bz_ArrayExprConstantIbEEEENS_10_bz_updateIbbEEEEvRNS_10TinyVectorIT_Li2EEERKT0_T1_, .-_ZN5blitz13_tv_evaluatorILb0ELi2EE17select_evaluationIbNS_13_bz_ArrayExprINS_21_bz_ArrayExprConstantIbEEEENS_10_bz_updateIbbEEEEvRNS_10TinyVectorIT_Li2EEERKT0_T1_
	.section	.text._ZNK5blitz10TinyVectorIbLi2EEixEj,"axG",@progbits,_ZNK5blitz10TinyVectorIbLi2EEixEj,comdat
	.align 2
	.weak	_ZNK5blitz10TinyVectorIbLi2EEixEj
	.type	_ZNK5blitz10TinyVectorIbLi2EEixEj, @function
_ZNK5blitz10TinyVectorIbLi2EEixEj:
.LFB7590:
	.cfi_startproc
	pushq	%rbp
	.cfi_def_cfa_offset 16
	.cfi_offset 6, -16
	movq	%rsp, %rbp
	.cfi_def_cfa_register 6
	movq	%rdi, -8(%rbp)
	movl	%esi, -12(%rbp)
	movl	-12(%rbp), %edx
	movq	-8(%rbp), %rax
	addq	%rdx, %rax
	popq	%rbp
	.cfi_def_cfa 7, 8
	ret
	.cfi_endproc
.LFE7590:
	.size	_ZNK5blitz10TinyVectorIbLi2EEixEj, .-_ZNK5blitz10TinyVectorIbLi2EEixEj
	.section	.text._ZNK5blitz19GeneralArrayStorageILi2EE21isRankStoredAscendingEi,"axG",@progbits,_ZNK5blitz19GeneralArrayStorageILi2EE21isRankStoredAscendingEi,comdat
	.align 2
	.weak	_ZNK5blitz19GeneralArrayStorageILi2EE21isRankStoredAscendingEi
	.type	_ZNK5blitz19GeneralArrayStorageILi2EE21isRankStoredAscendingEi, @function
_ZNK5blitz19GeneralArrayStorageILi2EE21isRankStoredAscendingEi:
.LFB7591:
	.cfi_startproc
	pushq	%rbp
	.cfi_def_cfa_offset 16
	.cfi_offset 6, -16
	movq	%rsp, %rbp
	.cfi_def_cfa_register 6
	subq	$16, %rsp
	movq	%rdi, -8(%rbp)
	movl	%esi, -12(%rbp)
	movl	-12(%rbp), %eax
	movq	-8(%rbp), %rdx
	addq	$4, %rdx
	movl	%eax, %esi
	movq	%rdx, %rdi
	call	_ZNK5blitz10TinyVectorIbLi2EEixEj
	movzbl	(%rax), %eax
	leave
	.cfi_def_cfa 7, 8
	ret
	.cfi_endproc
.LFE7591:
	.size	_ZNK5blitz19GeneralArrayStorageILi2EE21isRankStoredAscendingEi, .-_ZNK5blitz19GeneralArrayStorageILi2EE21isRankStoredAscendingEi
	.section	.text._ZNK5blitz5ArrayIfLi2EE4baseEi,"axG",@progbits,_ZNK5blitz5ArrayIfLi2EE4baseEi,comdat
	.align 2
	.weak	_ZNK5blitz5ArrayIfLi2EE4baseEi
	.type	_ZNK5blitz5ArrayIfLi2EE4baseEi, @function
_ZNK5blitz5ArrayIfLi2EE4baseEi:
.LFB7592:
	.cfi_startproc
	pushq	%rbp
	.cfi_def_cfa_offset 16
	.cfi_offset 6, -16
	movq	%rsp, %rbp
	.cfi_def_cfa_register 6
	subq	$16, %rsp
	movq	%rdi, -8(%rbp)
	movl	%esi, -12(%rbp)
	movq	-8(%rbp), %rax
	leaq	16(%rax), %rdx
	movl	-12(%rbp), %eax
	movl	%eax, %esi
	movq	%rdx, %rdi
	call	_ZNK5blitz19GeneralArrayStorageILi2EE4baseEi
	leave
	.cfi_def_cfa 7, 8
	ret
	.cfi_endproc
.LFE7592:
	.size	_ZNK5blitz5ArrayIfLi2EE4baseEi, .-_ZNK5blitz5ArrayIfLi2EE4baseEi
	.section	.text._ZN5blitz25_bz_meta_vectorProductRetILi2ELi1EmE1fINS_10TinyVectorIiLi2EEEEEmRKT_,"axG",@progbits,_ZN5blitz25_bz_meta_vectorProductRetILi2ELi1EmE1fINS_10TinyVectorIiLi2EEEEEmRKT_,comdat
	.weak	_ZN5blitz25_bz_meta_vectorProductRetILi2ELi1EmE1fINS_10TinyVectorIiLi2EEEEEmRKT_
	.type	_ZN5blitz25_bz_meta_vectorProductRetILi2ELi1EmE1fINS_10TinyVectorIiLi2EEEEEmRKT_, @function
_ZN5blitz25_bz_meta_vectorProductRetILi2ELi1EmE1fINS_10TinyVectorIiLi2EEEEEmRKT_:
.LFB7593:
	.cfi_startproc
	pushq	%rbp
	.cfi_def_cfa_offset 16
	.cfi_offset 6, -16
	movq	%rsp, %rbp
	.cfi_def_cfa_register 6
	subq	$32, %rsp
	movq	%rdi, -24(%rbp)
	movq	-24(%rbp), %rax
	movq	%rax, %rdi
	call	_ZN5blitz25_bz_meta_vectorProductRetILi0ELi0EmE1fINS_10TinyVectorIiLi2EEEEENS_20_bz_meta_nullOperandERKT_
	movq	-24(%rbp), %rax
	movl	$1, %esi
	movq	%rax, %rdi
	call	_ZNK5blitz10TinyVectorIiLi2EEixEj
	movl	(%rax), %eax
	cltq
	movq	%rax, -8(%rbp)
	leaq	-8(%rbp), %rax
	movq	%rax, %rdi
	call	_ZN5blitzmlImEET_RKS1_NS_20_bz_meta_nullOperandE
	leave
	.cfi_def_cfa 7, 8
	ret
	.cfi_endproc
.LFE7593:
	.size	_ZN5blitz25_bz_meta_vectorProductRetILi2ELi1EmE1fINS_10TinyVectorIiLi2EEEEEmRKT_, .-_ZN5blitz25_bz_meta_vectorProductRetILi2ELi1EmE1fINS_10TinyVectorIiLi2EEEEEmRKT_
	.section	.text._ZN5blitz11MemoryBlockIfE8allocateEm,"axG",@progbits,_ZN5blitz11MemoryBlockIfE8allocateEm,comdat
	.align 2
	.weak	_ZN5blitz11MemoryBlockIfE8allocateEm
	.type	_ZN5blitz11MemoryBlockIfE8allocateEm, @function
_ZN5blitz11MemoryBlockIfE8allocateEm:
.LFB7594:
	.cfi_startproc
	.cfi_personality 0x9b,DW.ref.__gxx_personality_v0
	.cfi_lsda 0x1b,.LLSDA7594
	pushq	%rbp
	.cfi_def_cfa_offset 16
	.cfi_offset 6, -16
	movq	%rsp, %rbp
	.cfi_def_cfa_register 6
	pushq	%r15
	pushq	%r14
	pushq	%r13
	pushq	%r12
	pushq	%rbx
	subq	$88, %rsp
	.cfi_offset 15, -24
	.cfi_offset 14, -32
	.cfi_offset 13, -40
	.cfi_offset 12, -48
	.cfi_offset 3, -56
	movq	%rdi, -120(%rbp)
	movq	%rsi, -128(%rbp)
	movq	$1, -56(%rbp)
	movq	$4, -64(%rbp)
	movl	$64, -68(%rbp)
	movq	$1024, -80(%rbp)
	movq	-128(%rbp), %rax
	salq	$2, %rax
	movq	%rax, -88(%rbp)
	cmpq	$1023, -88(%rbp)
	ja	.L286
	movq	-128(%rbp), %rbx
	movabsq	$2305843009213693950, %rax
	cmpq	%rax, %rbx
	ja	.L287
	leaq	2(%rbx), %rax
	salq	$2, %rax
	jmp	.L288
.L287:
	movq	$-1, %rax
.L288:
	movq	%rax, %rdi
.LEHB39:
	call	_Znam@PLT
.LEHE39:
	movq	%rax, %r12
	movq	%rbx, (%r12)
	leaq	8(%r12), %r14
	leaq	-1(%rbx), %rax
	movq	%rax, %r13
	movq	%r14, %r15
.L290:
	testq	%r13, %r13
	js	.L289
	movq	%r15, %rdi
.LEHB40:
	call	_ZN5blitz10TinyVectorIfLi1EEC1Ev
.LEHE40:
	addq	$4, %r15
	subq	$1, %r13
	jmp	.L290
.L289:
	leaq	8(%r12), %rdx
	movq	-120(%rbp), %rax
	movq	%rdx, 24(%rax)
	movq	-120(%rbp), %rax
	movq	24(%rax), %rdx
	movq	-120(%rbp), %rax
	movq	%rdx, 16(%rax)
	jmp	.L291
.L286:
	movq	-88(%rbp), %rax
	addq	$65, %rax
	movq	%rax, %rdi
.LEHB41:
	call	_Znam@PLT
	movq	%rax, %rdx
	movq	-120(%rbp), %rax
	movq	%rdx, 24(%rax)
	movq	-120(%rbp), %rax
	movq	24(%rax), %rax
	movq	%rax, %rdx
	movq	%rdx, %rax
	sarq	$63, %rax
	shrq	$58, %rax
	movq	%rax, %rcx
	leaq	(%rdx,%rcx), %rax
	andl	$63, %eax
	subq	%rcx, %rax
	movq	%rax, -96(%rbp)
	cmpq	$0, -96(%rbp)
	je	.L292
	movl	$64, %eax
	subq	-96(%rbp), %rax
	jmp	.L293
.L292:
	movl	$0, %eax
.L293:
	movq	%rax, -104(%rbp)
	movq	-120(%rbp), %rax
	movq	24(%rax), %rdx
	movq	-104(%rbp), %rax
	addq	%rax, %rdx
	movq	-120(%rbp), %rax
	movq	%rdx, 16(%rax)
.L291:
	movq	-120(%rbp), %rax
	movb	$1, 8(%rax)
	jmp	.L300
.L299:
	movq	%rax, %r15
	testq	%r14, %r14
	je	.L295
	movq	%r13, %rdx
	movq	%rbx, %rax
	subq	%rdx, %rax
	subq	$1, %rax
	salq	$2, %rax
	leaq	(%r14,%rax), %r13
.L296:
	cmpq	%r14, %r13
	je	.L295
	subq	$4, %r13
	movq	%r13, %rdi
	call	_ZN5blitz10TinyVectorIfLi1EED1Ev
	jmp	.L296
.L295:
	movq	%r15, %r13
	movabsq	$2305843009213693950, %rax
	cmpq	%rax, %rbx
	ja	.L297
	leaq	2(%rbx), %rax
	salq	$2, %rax
	jmp	.L298
.L297:
	movq	$-1, %rax
.L298:
	movq	%rax, %rsi
	movq	%r12, %rdi
	call	_ZdaPvm@PLT
	movq	%r13, %rax
	movq	%rax, %rdi
	call	_Unwind_Resume@PLT
.LEHE41:
.L300:
	addq	$88, %rsp
	popq	%rbx
	popq	%r12
	popq	%r13
	popq	%r14
	popq	%r15
	popq	%rbp
	.cfi_def_cfa 7, 8
	ret
	.cfi_endproc
.LFE7594:
	.section	.gcc_except_table
.LLSDA7594:
	.byte	0xff
	.byte	0xff
	.byte	0x1
	.uleb128 .LLSDACSE7594-.LLSDACSB7594
.LLSDACSB7594:
	.uleb128 .LEHB39-.LFB7594
	.uleb128 .LEHE39-.LEHB39
	.uleb128 0
	.uleb128 0
	.uleb128 .LEHB40-.LFB7594
	.uleb128 .LEHE40-.LEHB40
	.uleb128 .L299-.LFB7594
	.uleb128 0
	.uleb128 .LEHB41-.LFB7594
	.uleb128 .LEHE41-.LEHB41
	.uleb128 0
	.uleb128 0
.LLSDACSE7594:
	.section	.text._ZN5blitz11MemoryBlockIfE8allocateEm,"axG",@progbits,_ZN5blitz11MemoryBlockIfE8allocateEm,comdat
	.size	_ZN5blitz11MemoryBlockIfE8allocateEm, .-_ZN5blitz11MemoryBlockIfE8allocateEm
	.section	.text._ZN5blitz10TinyVectorIfLi1EED2Ev,"axG",@progbits,_ZN5blitz10TinyVectorIfLi1EED5Ev,comdat
	.align 2
	.weak	_ZN5blitz10TinyVectorIfLi1EED2Ev
	.type	_ZN5blitz10TinyVectorIfLi1EED2Ev, @function
_ZN5blitz10TinyVectorIfLi1EED2Ev:
.LFB7596:
	.cfi_startproc
	pushq	%rbp
	.cfi_def_cfa_offset 16
	.cfi_offset 6, -16
	movq	%rsp, %rbp
	.cfi_def_cfa_register 6
	movq	%rdi, -8(%rbp)
	nop
	popq	%rbp
	.cfi_def_cfa 7, 8
	ret
	.cfi_endproc
.LFE7596:
	.size	_ZN5blitz10TinyVectorIfLi1EED2Ev, .-_ZN5blitz10TinyVectorIfLi1EED2Ev
	.weak	_ZN5blitz10TinyVectorIfLi1EED1Ev
	.set	_ZN5blitz10TinyVectorIfLi1EED1Ev,_ZN5blitz10TinyVectorIfLi1EED2Ev
	.section	.text._ZN5blitz11MemoryBlockIfE12addReferenceEv,"axG",@progbits,_ZN5blitz11MemoryBlockIfE12addReferenceEv,comdat
	.align 2
	.weak	_ZN5blitz11MemoryBlockIfE12addReferenceEv
	.type	_ZN5blitz11MemoryBlockIfE12addReferenceEv, @function
_ZN5blitz11MemoryBlockIfE12addReferenceEv:
.LFB7598:
	.cfi_startproc
	pushq	%rbp
	.cfi_def_cfa_offset 16
	.cfi_offset 6, -16
	movq	%rsp, %rbp
	.cfi_def_cfa_register 6
	movq	%rdi, -8(%rbp)
	movq	-8(%rbp), %rax
	movl	40(%rax), %eax
	leal	1(%rax), %edx
	movq	-8(%rbp), %rax
	movl	%edx, 40(%rax)
	nop
	popq	%rbp
	.cfi_def_cfa 7, 8
	ret
	.cfi_endproc
.LFE7598:
	.size	_ZN5blitz11MemoryBlockIfE12addReferenceEv, .-_ZN5blitz11MemoryBlockIfE12addReferenceEv
	.section	.text._ZN5blitz18_bz_meta_vectorDotILi0ELi0EE1fINS_10TinyVectorIiLi2EEENS3_IlLi2EEEEENS_20_bz_meta_nullOperandERKT_RKT0_,"axG",@progbits,_ZN5blitz18_bz_meta_vectorDotILi0ELi0EE1fINS_10TinyVectorIiLi2EEENS3_IlLi2EEEEENS_20_bz_meta_nullOperandERKT_RKT0_,comdat
	.weak	_ZN5blitz18_bz_meta_vectorDotILi0ELi0EE1fINS_10TinyVectorIiLi2EEENS3_IlLi2EEEEENS_20_bz_meta_nullOperandERKT_RKT0_
	.type	_ZN5blitz18_bz_meta_vectorDotILi0ELi0EE1fINS_10TinyVectorIiLi2EEENS3_IlLi2EEEEENS_20_bz_meta_nullOperandERKT_RKT0_, @function
_ZN5blitz18_bz_meta_vectorDotILi0ELi0EE1fINS_10TinyVectorIiLi2EEENS3_IlLi2EEEEENS_20_bz_meta_nullOperandERKT_RKT0_:
.LFB7751:
	.cfi_startproc
	pushq	%rbp
	.cfi_def_cfa_offset 16
	.cfi_offset 6, -16
	movq	%rsp, %rbp
	.cfi_def_cfa_register 6
	pushq	%rbx
	subq	$40, %rsp
	.cfi_offset 3, -24
	movq	%rdi, -40(%rbp)
	movq	%rsi, -48(%rbp)
	leaq	-17(%rbp), %rax
	movq	%rax, %rdi
	call	_ZN5blitz20_bz_meta_nullOperandC1Ev
	nop
	movl	%ebx, %eax
	movq	-8(%rbp), %rbx
	leave
	.cfi_def_cfa 7, 8
	ret
	.cfi_endproc
.LFE7751:
	.size	_ZN5blitz18_bz_meta_vectorDotILi0ELi0EE1fINS_10TinyVectorIiLi2EEENS3_IlLi2EEEEENS_20_bz_meta_nullOperandERKT_RKT0_, .-_ZN5blitz18_bz_meta_vectorDotILi0ELi0EE1fINS_10TinyVectorIiLi2EEENS3_IlLi2EEEEENS_20_bz_meta_nullOperandERKT_RKT0_
	.section	.text._ZN5blitzplIlEET_RKS1_NS_20_bz_meta_nullOperandE,"axG",@progbits,_ZN5blitzplIlEET_RKS1_NS_20_bz_meta_nullOperandE,comdat
	.weak	_ZN5blitzplIlEET_RKS1_NS_20_bz_meta_nullOperandE
	.type	_ZN5blitzplIlEET_RKS1_NS_20_bz_meta_nullOperandE, @function
_ZN5blitzplIlEET_RKS1_NS_20_bz_meta_nullOperandE:
.LFB7752:
	.cfi_startproc
	pushq	%rbp
	.cfi_def_cfa_offset 16
	.cfi_offset 6, -16
	movq	%rsp, %rbp
	.cfi_def_cfa_register 6
	movq	%rdi, -8(%rbp)
	movq	-8(%rbp), %rax
	movq	(%rax), %rax
	popq	%rbp
	.cfi_def_cfa 7, 8
	ret
	.cfi_endproc
.LFE7752:
	.size	_ZN5blitzplIlEET_RKS1_NS_20_bz_meta_nullOperandE, .-_ZN5blitzplIlEET_RKS1_NS_20_bz_meta_nullOperandE
	.section	.text._ZN5blitz10TinyVectorIiLi2EE4dataEv,"axG",@progbits,_ZN5blitz10TinyVectorIiLi2EE4dataEv,comdat
	.align 2
	.weak	_ZN5blitz10TinyVectorIiLi2EE4dataEv
	.type	_ZN5blitz10TinyVectorIiLi2EE4dataEv, @function
_ZN5blitz10TinyVectorIiLi2EE4dataEv:
.LFB7753:
	.cfi_startproc
	pushq	%rbp
	.cfi_def_cfa_offset 16
	.cfi_offset 6, -16
	movq	%rsp, %rbp
	.cfi_def_cfa_register 6
	movq	%rdi, -8(%rbp)
	movq	-8(%rbp), %rax
	popq	%rbp
	.cfi_def_cfa 7, 8
	ret
	.cfi_endproc
.LFE7753:
	.size	_ZN5blitz10TinyVectorIiLi2EE4dataEv, .-_ZN5blitz10TinyVectorIiLi2EE4dataEv
	.section	.text._ZN5blitz13_tv_evaluatorILb0ELi2EE16evaluate_alignedIiNS_13_bz_ArrayExprINS_21_bz_ArrayExprConstantIiEEEENS_10_bz_updateIiiEEEEvPT_RKT0_T1_,"axG",@progbits,_ZN5blitz13_tv_evaluatorILb0ELi2EE16evaluate_alignedIiNS_13_bz_ArrayExprINS_21_bz_ArrayExprConstantIiEEEENS_10_bz_updateIiiEEEEvPT_RKT0_T1_,comdat
	.weak	_ZN5blitz13_tv_evaluatorILb0ELi2EE16evaluate_alignedIiNS_13_bz_ArrayExprINS_21_bz_ArrayExprConstantIiEEEENS_10_bz_updateIiiEEEEvPT_RKT0_T1_
	.type	_ZN5blitz13_tv_evaluatorILb0ELi2EE16evaluate_alignedIiNS_13_bz_ArrayExprINS_21_bz_ArrayExprConstantIiEEEENS_10_bz_updateIiiEEEEvPT_RKT0_T1_, @function
_ZN5blitz13_tv_evaluatorILb0ELi2EE16evaluate_alignedIiNS_13_bz_ArrayExprINS_21_bz_ArrayExprConstantIiEEEENS_10_bz_updateIiiEEEEvPT_RKT0_T1_:
.LFB7754:
	.cfi_startproc
	pushq	%rbp
	.cfi_def_cfa_offset 16
	.cfi_offset 6, -16
	movq	%rsp, %rbp
	.cfi_def_cfa_register 6
	subq	$32, %rsp
	movq	%rdi, -24(%rbp)
	movq	%rsi, -32(%rbp)
	movl	$0, -4(%rbp)
.L311:
	cmpl	$1, -4(%rbp)
	jg	.L312
	movl	-4(%rbp), %eax
	movslq	%eax, %rdx
	movq	-32(%rbp), %rax
	movq	%rdx, %rsi
	movq	%rax, %rdi
	call	_ZNK5blitz13_bz_ArrayExprINS_21_bz_ArrayExprConstantIiEEE8fastReadEl
	movl	%eax, %edx
	movl	-4(%rbp), %eax
	cltq
	leaq	0(,%rax,4), %rcx
	movq	-24(%rbp), %rax
	addq	%rcx, %rax
	movl	%edx, %esi
	movq	%rax, %rdi
	call	_ZN5blitz10_bz_updateIiiE6updateERii
	addl	$1, -4(%rbp)
	jmp	.L311
.L312:
	nop
	leave
	.cfi_def_cfa 7, 8
	ret
	.cfi_endproc
.LFE7754:
	.size	_ZN5blitz13_tv_evaluatorILb0ELi2EE16evaluate_alignedIiNS_13_bz_ArrayExprINS_21_bz_ArrayExprConstantIiEEEENS_10_bz_updateIiiEEEEvPT_RKT0_T1_, .-_ZN5blitz13_tv_evaluatorILb0ELi2EE16evaluate_alignedIiNS_13_bz_ArrayExprINS_21_bz_ArrayExprConstantIiEEEENS_10_bz_updateIiiEEEEvPT_RKT0_T1_
	.section	.text._ZN5blitz10TinyVectorIbLi2EE4dataEv,"axG",@progbits,_ZN5blitz10TinyVectorIbLi2EE4dataEv,comdat
	.align 2
	.weak	_ZN5blitz10TinyVectorIbLi2EE4dataEv
	.type	_ZN5blitz10TinyVectorIbLi2EE4dataEv, @function
_ZN5blitz10TinyVectorIbLi2EE4dataEv:
.LFB7755:
	.cfi_startproc
	pushq	%rbp
	.cfi_def_cfa_offset 16
	.cfi_offset 6, -16
	movq	%rsp, %rbp
	.cfi_def_cfa_register 6
	movq	%rdi, -8(%rbp)
	movq	-8(%rbp), %rax
	popq	%rbp
	.cfi_def_cfa 7, 8
	ret
	.cfi_endproc
.LFE7755:
	.size	_ZN5blitz10TinyVectorIbLi2EE4dataEv, .-_ZN5blitz10TinyVectorIbLi2EE4dataEv
	.section	.text._ZN5blitz13_tv_evaluatorILb0ELi2EE16evaluate_alignedIbNS_13_bz_ArrayExprINS_21_bz_ArrayExprConstantIbEEEENS_10_bz_updateIbbEEEEvPT_RKT0_T1_,"axG",@progbits,_ZN5blitz13_tv_evaluatorILb0ELi2EE16evaluate_alignedIbNS_13_bz_ArrayExprINS_21_bz_ArrayExprConstantIbEEEENS_10_bz_updateIbbEEEEvPT_RKT0_T1_,comdat
	.weak	_ZN5blitz13_tv_evaluatorILb0ELi2EE16evaluate_alignedIbNS_13_bz_ArrayExprINS_21_bz_ArrayExprConstantIbEEEENS_10_bz_updateIbbEEEEvPT_RKT0_T1_
	.type	_ZN5blitz13_tv_evaluatorILb0ELi2EE16evaluate_alignedIbNS_13_bz_ArrayExprINS_21_bz_ArrayExprConstantIbEEEENS_10_bz_updateIbbEEEEvPT_RKT0_T1_, @function
_ZN5blitz13_tv_evaluatorILb0ELi2EE16evaluate_alignedIbNS_13_bz_ArrayExprINS_21_bz_ArrayExprConstantIbEEEENS_10_bz_updateIbbEEEEvPT_RKT0_T1_:
.LFB7756:
	.cfi_startproc
	pushq	%rbp
	.cfi_def_cfa_offset 16
	.cfi_offset 6, -16
	movq	%rsp, %rbp
	.cfi_def_cfa_register 6
	subq	$32, %rsp
	movq	%rdi, -24(%rbp)
	movq	%rsi, -32(%rbp)
	movl	$0, -4(%rbp)
.L317:
	cmpl	$1, -4(%rbp)
	jg	.L318
	movl	-4(%rbp), %eax
	movslq	%eax, %rdx
	movq	-32(%rbp), %rax
	movq	%rdx, %rsi
	movq	%rax, %rdi
	call	_ZNK5blitz13_bz_ArrayExprINS_21_bz_ArrayExprConstantIbEEE8fastReadEl
	movzbl	%al, %eax
	movl	-4(%rbp), %edx
	movslq	%edx, %rcx
	movq	-24(%rbp), %rdx
	addq	%rcx, %rdx
	movl	%eax, %esi
	movq	%rdx, %rdi
	call	_ZN5blitz10_bz_updateIbbE6updateERbb
	addl	$1, -4(%rbp)
	jmp	.L317
.L318:
	nop
	leave
	.cfi_def_cfa 7, 8
	ret
	.cfi_endproc
.LFE7756:
	.size	_ZN5blitz13_tv_evaluatorILb0ELi2EE16evaluate_alignedIbNS_13_bz_ArrayExprINS_21_bz_ArrayExprConstantIbEEEENS_10_bz_updateIbbEEEEvPT_RKT0_T1_, .-_ZN5blitz13_tv_evaluatorILb0ELi2EE16evaluate_alignedIbNS_13_bz_ArrayExprINS_21_bz_ArrayExprConstantIbEEEENS_10_bz_updateIbbEEEEvPT_RKT0_T1_
	.section	.text._ZN5blitz25_bz_meta_vectorProductRetILi0ELi0EmE1fINS_10TinyVectorIiLi2EEEEENS_20_bz_meta_nullOperandERKT_,"axG",@progbits,_ZN5blitz25_bz_meta_vectorProductRetILi0ELi0EmE1fINS_10TinyVectorIiLi2EEEEENS_20_bz_meta_nullOperandERKT_,comdat
	.weak	_ZN5blitz25_bz_meta_vectorProductRetILi0ELi0EmE1fINS_10TinyVectorIiLi2EEEEENS_20_bz_meta_nullOperandERKT_
	.type	_ZN5blitz25_bz_meta_vectorProductRetILi0ELi0EmE1fINS_10TinyVectorIiLi2EEEEENS_20_bz_meta_nullOperandERKT_, @function
_ZN5blitz25_bz_meta_vectorProductRetILi0ELi0EmE1fINS_10TinyVectorIiLi2EEEEENS_20_bz_meta_nullOperandERKT_:
.LFB7757:
	.cfi_startproc
	pushq	%rbp
	.cfi_def_cfa_offset 16
	.cfi_offset 6, -16
	movq	%rsp, %rbp
	.cfi_def_cfa_register 6
	pushq	%rbx
	subq	$40, %rsp
	.cfi_offset 3, -24
	movq	%rdi, -40(%rbp)
	leaq	-17(%rbp), %rax
	movq	%rax, %rdi
	call	_ZN5blitz20_bz_meta_nullOperandC1Ev
	nop
	movl	%ebx, %eax
	movq	-8(%rbp), %rbx
	leave
	.cfi_def_cfa 7, 8
	ret
	.cfi_endproc
.LFE7757:
	.size	_ZN5blitz25_bz_meta_vectorProductRetILi0ELi0EmE1fINS_10TinyVectorIiLi2EEEEENS_20_bz_meta_nullOperandERKT_, .-_ZN5blitz25_bz_meta_vectorProductRetILi0ELi0EmE1fINS_10TinyVectorIiLi2EEEEENS_20_bz_meta_nullOperandERKT_
	.section	.text._ZN5blitzmlImEET_RKS1_NS_20_bz_meta_nullOperandE,"axG",@progbits,_ZN5blitzmlImEET_RKS1_NS_20_bz_meta_nullOperandE,comdat
	.weak	_ZN5blitzmlImEET_RKS1_NS_20_bz_meta_nullOperandE
	.type	_ZN5blitzmlImEET_RKS1_NS_20_bz_meta_nullOperandE, @function
_ZN5blitzmlImEET_RKS1_NS_20_bz_meta_nullOperandE:
.LFB7758:
	.cfi_startproc
	pushq	%rbp
	.cfi_def_cfa_offset 16
	.cfi_offset 6, -16
	movq	%rsp, %rbp
	.cfi_def_cfa_register 6
	movq	%rdi, -8(%rbp)
	movq	-8(%rbp), %rax
	movq	(%rax), %rax
	popq	%rbp
	.cfi_def_cfa 7, 8
	ret
	.cfi_endproc
.LFE7758:
	.size	_ZN5blitzmlImEET_RKS1_NS_20_bz_meta_nullOperandE, .-_ZN5blitzmlImEET_RKS1_NS_20_bz_meta_nullOperandE
	.section	.text._ZN5blitz10TinyVectorIfLi1EEC2Ev,"axG",@progbits,_ZN5blitz10TinyVectorIfLi1EEC5Ev,comdat
	.align 2
	.weak	_ZN5blitz10TinyVectorIfLi1EEC2Ev
	.type	_ZN5blitz10TinyVectorIfLi1EEC2Ev, @function
_ZN5blitz10TinyVectorIfLi1EEC2Ev:
.LFB7760:
	.cfi_startproc
	pushq	%rbp
	.cfi_def_cfa_offset 16
	.cfi_offset 6, -16
	movq	%rsp, %rbp
	.cfi_def_cfa_register 6
	subq	$16, %rsp
	movq	%rdi, -8(%rbp)
	movq	-8(%rbp), %rax
	movq	%rax, %rdi
	call	_ZN5blitz6ETBaseINS_10TinyVectorIfLi1EEEEC2Ev
	nop
	leave
	.cfi_def_cfa 7, 8
	ret
	.cfi_endproc
.LFE7760:
	.size	_ZN5blitz10TinyVectorIfLi1EEC2Ev, .-_ZN5blitz10TinyVectorIfLi1EEC2Ev
	.weak	_ZN5blitz10TinyVectorIfLi1EEC1Ev
	.set	_ZN5blitz10TinyVectorIfLi1EEC1Ev,_ZN5blitz10TinyVectorIfLi1EEC2Ev
	.section	.text._ZN5blitz10_bz_updateIiiE6updateERii,"axG",@progbits,_ZN5blitz10_bz_updateIiiE6updateERii,comdat
	.weak	_ZN5blitz10_bz_updateIiiE6updateERii
	.type	_ZN5blitz10_bz_updateIiiE6updateERii, @function
_ZN5blitz10_bz_updateIiiE6updateERii:
.LFB7818:
	.cfi_startproc
	pushq	%rbp
	.cfi_def_cfa_offset 16
	.cfi_offset 6, -16
	movq	%rsp, %rbp
	.cfi_def_cfa_register 6
	movq	%rdi, -8(%rbp)
	movl	%esi, -12(%rbp)
	movq	-8(%rbp), %rax
	movl	-12(%rbp), %edx
	movl	%edx, (%rax)
	nop
	popq	%rbp
	.cfi_def_cfa 7, 8
	ret
	.cfi_endproc
.LFE7818:
	.size	_ZN5blitz10_bz_updateIiiE6updateERii, .-_ZN5blitz10_bz_updateIiiE6updateERii
	.section	.text._ZNK5blitz13_bz_ArrayExprINS_21_bz_ArrayExprConstantIiEEE8fastReadEl,"axG",@progbits,_ZNK5blitz13_bz_ArrayExprINS_21_bz_ArrayExprConstantIiEEE8fastReadEl,comdat
	.align 2
	.weak	_ZNK5blitz13_bz_ArrayExprINS_21_bz_ArrayExprConstantIiEEE8fastReadEl
	.type	_ZNK5blitz13_bz_ArrayExprINS_21_bz_ArrayExprConstantIiEEE8fastReadEl, @function
_ZNK5blitz13_bz_ArrayExprINS_21_bz_ArrayExprConstantIiEEE8fastReadEl:
.LFB8102:
	.cfi_startproc
	pushq	%rbp
	.cfi_def_cfa_offset 16
	.cfi_offset 6, -16
	movq	%rsp, %rbp
	.cfi_def_cfa_register 6
	subq	$16, %rsp
	movq	%rdi, -8(%rbp)
	movq	%rsi, -16(%rbp)
	movq	-8(%rbp), %rax
	movq	-16(%rbp), %rdx
	movq	%rdx, %rsi
	movq	%rax, %rdi
	call	_ZNK5blitz21_bz_ArrayExprConstantIiE8fastReadEl
	movl	(%rax), %eax
	leave
	.cfi_def_cfa 7, 8
	ret
	.cfi_endproc
.LFE8102:
	.size	_ZNK5blitz13_bz_ArrayExprINS_21_bz_ArrayExprConstantIiEEE8fastReadEl, .-_ZNK5blitz13_bz_ArrayExprINS_21_bz_ArrayExprConstantIiEEE8fastReadEl
	.section	.text._ZN5blitz10_bz_updateIbbE6updateERbb,"axG",@progbits,_ZN5blitz10_bz_updateIbbE6updateERbb,comdat
	.weak	_ZN5blitz10_bz_updateIbbE6updateERbb
	.type	_ZN5blitz10_bz_updateIbbE6updateERbb, @function
_ZN5blitz10_bz_updateIbbE6updateERbb:
.LFB8103:
	.cfi_startproc
	pushq	%rbp
	.cfi_def_cfa_offset 16
	.cfi_offset 6, -16
	movq	%rsp, %rbp
	.cfi_def_cfa_register 6
	movq	%rdi, -8(%rbp)
	movl	%esi, %eax
	movb	%al, -12(%rbp)
	movq	-8(%rbp), %rax
	movzbl	-12(%rbp), %edx
	movb	%dl, (%rax)
	nop
	popq	%rbp
	.cfi_def_cfa 7, 8
	ret
	.cfi_endproc
.LFE8103:
	.size	_ZN5blitz10_bz_updateIbbE6updateERbb, .-_ZN5blitz10_bz_updateIbbE6updateERbb
	.section	.text._ZNK5blitz13_bz_ArrayExprINS_21_bz_ArrayExprConstantIbEEE8fastReadEl,"axG",@progbits,_ZNK5blitz13_bz_ArrayExprINS_21_bz_ArrayExprConstantIbEEE8fastReadEl,comdat
	.align 2
	.weak	_ZNK5blitz13_bz_ArrayExprINS_21_bz_ArrayExprConstantIbEEE8fastReadEl
	.type	_ZNK5blitz13_bz_ArrayExprINS_21_bz_ArrayExprConstantIbEEE8fastReadEl, @function
_ZNK5blitz13_bz_ArrayExprINS_21_bz_ArrayExprConstantIbEEE8fastReadEl:
.LFB8104:
	.cfi_startproc
	pushq	%rbp
	.cfi_def_cfa_offset 16
	.cfi_offset 6, -16
	movq	%rsp, %rbp
	.cfi_def_cfa_register 6
	subq	$16, %rsp
	movq	%rdi, -8(%rbp)
	movq	%rsi, -16(%rbp)
	movq	-8(%rbp), %rax
	movq	-16(%rbp), %rdx
	movq	%rdx, %rsi
	movq	%rax, %rdi
	call	_ZNK5blitz21_bz_ArrayExprConstantIbE8fastReadEl
	movzbl	(%rax), %eax
	leave
	.cfi_def_cfa 7, 8
	ret
	.cfi_endproc
.LFE8104:
	.size	_ZNK5blitz13_bz_ArrayExprINS_21_bz_ArrayExprConstantIbEEE8fastReadEl, .-_ZNK5blitz13_bz_ArrayExprINS_21_bz_ArrayExprConstantIbEEE8fastReadEl
	.section	.text._ZN5blitz6ETBaseINS_10TinyVectorIfLi1EEEEC2Ev,"axG",@progbits,_ZN5blitz6ETBaseINS_10TinyVectorIfLi1EEEEC5Ev,comdat
	.align 2
	.weak	_ZN5blitz6ETBaseINS_10TinyVectorIfLi1EEEEC2Ev
	.type	_ZN5blitz6ETBaseINS_10TinyVectorIfLi1EEEEC2Ev, @function
_ZN5blitz6ETBaseINS_10TinyVectorIfLi1EEEEC2Ev:
.LFB8106:
	.cfi_startproc
	pushq	%rbp
	.cfi_def_cfa_offset 16
	.cfi_offset 6, -16
	movq	%rsp, %rbp
	.cfi_def_cfa_register 6
	movq	%rdi, -8(%rbp)
	nop
	popq	%rbp
	.cfi_def_cfa 7, 8
	ret
	.cfi_endproc
.LFE8106:
	.size	_ZN5blitz6ETBaseINS_10TinyVectorIfLi1EEEEC2Ev, .-_ZN5blitz6ETBaseINS_10TinyVectorIfLi1EEEEC2Ev
	.weak	_ZN5blitz6ETBaseINS_10TinyVectorIfLi1EEEEC1Ev
	.set	_ZN5blitz6ETBaseINS_10TinyVectorIfLi1EEEEC1Ev,_ZN5blitz6ETBaseINS_10TinyVectorIfLi1EEEEC2Ev
	.section	.text._ZNK5blitz21_bz_ArrayExprConstantIiE8fastReadEl,"axG",@progbits,_ZNK5blitz21_bz_ArrayExprConstantIiE8fastReadEl,comdat
	.align 2
	.weak	_ZNK5blitz21_bz_ArrayExprConstantIiE8fastReadEl
	.type	_ZNK5blitz21_bz_ArrayExprConstantIiE8fastReadEl, @function
_ZNK5blitz21_bz_ArrayExprConstantIiE8fastReadEl:
.LFB8169:
	.cfi_startproc
	pushq	%rbp
	.cfi_def_cfa_offset 16
	.cfi_offset 6, -16
	movq	%rsp, %rbp
	.cfi_def_cfa_register 6
	movq	%rdi, -8(%rbp)
	movq	%rsi, -16(%rbp)
	movq	-8(%rbp), %rax
	popq	%rbp
	.cfi_def_cfa 7, 8
	ret
	.cfi_endproc
.LFE8169:
	.size	_ZNK5blitz21_bz_ArrayExprConstantIiE8fastReadEl, .-_ZNK5blitz21_bz_ArrayExprConstantIiE8fastReadEl
	.section	.text._ZNK5blitz21_bz_ArrayExprConstantIbE8fastReadEl,"axG",@progbits,_ZNK5blitz21_bz_ArrayExprConstantIbE8fastReadEl,comdat
	.align 2
	.weak	_ZNK5blitz21_bz_ArrayExprConstantIbE8fastReadEl
	.type	_ZNK5blitz21_bz_ArrayExprConstantIbE8fastReadEl, @function
_ZNK5blitz21_bz_ArrayExprConstantIbE8fastReadEl:
.LFB8170:
	.cfi_startproc
	pushq	%rbp
	.cfi_def_cfa_offset 16
	.cfi_offset 6, -16
	movq	%rsp, %rbp
	.cfi_def_cfa_register 6
	movq	%rdi, -8(%rbp)
	movq	%rsi, -16(%rbp)
	movq	-8(%rbp), %rax
	popq	%rbp
	.cfi_def_cfa 7, 8
	ret
	.cfi_endproc
.LFE8170:
	.size	_ZNK5blitz21_bz_ArrayExprConstantIbE8fastReadEl, .-_ZNK5blitz21_bz_ArrayExprConstantIbE8fastReadEl
	.weak	_ZTVN5blitz11MemoryBlockIfEE
	.section	.data.rel.ro.local._ZTVN5blitz11MemoryBlockIfEE,"awG",@progbits,_ZTVN5blitz11MemoryBlockIfEE,comdat
	.align 8
	.type	_ZTVN5blitz11MemoryBlockIfEE, @object
	.size	_ZTVN5blitz11MemoryBlockIfEE, 32
_ZTVN5blitz11MemoryBlockIfEE:
	.quad	0
	.quad	_ZTIN5blitz11MemoryBlockIfEE
	.quad	_ZN5blitz11MemoryBlockIfED1Ev
	.quad	_ZN5blitz11MemoryBlockIfED0Ev
	.weak	_ZTIN5blitz11MemoryBlockIfEE
	.section	.data.rel.ro._ZTIN5blitz11MemoryBlockIfEE,"awG",@progbits,_ZTIN5blitz11MemoryBlockIfEE,comdat
	.align 8
	.type	_ZTIN5blitz11MemoryBlockIfEE, @object
	.size	_ZTIN5blitz11MemoryBlockIfEE, 16
_ZTIN5blitz11MemoryBlockIfEE:
	.quad	_ZTVN10__cxxabiv117__class_type_infoE+16
	.quad	_ZTSN5blitz11MemoryBlockIfEE
	.weak	_ZTSN5blitz11MemoryBlockIfEE
	.section	.rodata._ZTSN5blitz11MemoryBlockIfEE,"aG",@progbits,_ZTSN5blitz11MemoryBlockIfEE,comdat
	.align 16
	.type	_ZTSN5blitz11MemoryBlockIfEE, @object
	.size	_ZTSN5blitz11MemoryBlockIfEE, 25
_ZTSN5blitz11MemoryBlockIfEE:
	.string	"N5blitz11MemoryBlockIfEE"
	.text
	.type	_Z41__static_initialization_and_destruction_0ii, @function
_Z41__static_initialization_and_destruction_0ii:
.LFB8469:
	.cfi_startproc
	pushq	%rbp
	.cfi_def_cfa_offset 16
	.cfi_offset 6, -16
	movq	%rsp, %rbp
	.cfi_def_cfa_register 6
	subq	$16, %rsp
	movl	%edi, -4(%rbp)
	movl	%esi, -8(%rbp)
	cmpl	$1, -4(%rbp)
	jne	.L337
	cmpl	$65535, -8(%rbp)
	jne	.L337
	leaq	_ZStL8__ioinit(%rip), %rdi
	call	_ZNSt8ios_base4InitC1Ev@PLT
	leaq	__dso_handle(%rip), %rdx
	leaq	_ZStL8__ioinit(%rip), %rsi
	movq	_ZNSt8ios_base4InitD1Ev@GOTPCREL(%rip), %rax
	movq	%rax, %rdi
	call	__cxa_atexit@PLT
.L337:
	nop
	leave
	.cfi_def_cfa 7, 8
	ret
	.cfi_endproc
.LFE8469:
	.size	_Z41__static_initialization_and_destruction_0ii, .-_Z41__static_initialization_and_destruction_0ii
	.type	_GLOBAL__sub_I__Z10versionOneN5blitz5ArrayIfLi2EEEii, @function
_GLOBAL__sub_I__Z10versionOneN5blitz5ArrayIfLi2EEEii:
.LFB8470:
	.cfi_startproc
	pushq	%rbp
	.cfi_def_cfa_offset 16
	.cfi_offset 6, -16
	movq	%rsp, %rbp
	.cfi_def_cfa_register 6
	movl	$65535, %esi
	movl	$1, %edi
	call	_Z41__static_initialization_and_destruction_0ii
	popq	%rbp
	.cfi_def_cfa 7, 8
	ret
	.cfi_endproc
.LFE8470:
	.size	_GLOBAL__sub_I__Z10versionOneN5blitz5ArrayIfLi2EEEii, .-_GLOBAL__sub_I__Z10versionOneN5blitz5ArrayIfLi2EEEii
	.section	.init_array,"aw"
	.align 8
	.quad	_GLOBAL__sub_I__Z10versionOneN5blitz5ArrayIfLi2EEEii
	.section	.rodata
	.align 4
.LC0:
	.long	1056964608
	.align 4
.LC5:
	.long	1325400064
	.hidden	DW.ref.__gxx_personality_v0
	.weak	DW.ref.__gxx_personality_v0
	.section	.data.rel.local.DW.ref.__gxx_personality_v0,"awG",@progbits,DW.ref.__gxx_personality_v0,comdat
	.align 8
	.type	DW.ref.__gxx_personality_v0, @object
	.size	DW.ref.__gxx_personality_v0, 8
DW.ref.__gxx_personality_v0:
	.quad	__gxx_personality_v0
	.hidden	__dso_handle
	.ident	"GCC: (Debian 10.2.1-6) 10.2.1 20210110"
	.section	.note.GNU-stack,"",@progbits
